
build/firmware.elf:     file format elf32-littlearm


Disassembly of section .isr_vector:

08000000 <g_pfnVectors>:
 8000000:	20020000 			@ <UNDEFINED> instruction: 20020000
 8000004:	08001fe5 			@ <UNDEFINED> instruction: 08001fe5
 8000008:	08002035 			@ <UNDEFINED> instruction: 08002035
 800000c:	08002035 			@ <UNDEFINED> instruction: 08002035
 8000010:	08002035 			@ <UNDEFINED> instruction: 08002035
 8000014:	08002035 			@ <UNDEFINED> instruction: 08002035
 8000018:	08002035 			@ <UNDEFINED> instruction: 08002035
	...
 800002c:	08002035 			@ <UNDEFINED> instruction: 08002035
 8000030:	08002035 			@ <UNDEFINED> instruction: 08002035
 8000034:	00000000 			@ <UNDEFINED> instruction: 00000000
 8000038:	08002035 			@ <UNDEFINED> instruction: 08002035
 800003c:	080024b9 			@ <UNDEFINED> instruction: 080024b9
 8000040:	08002035 			@ <UNDEFINED> instruction: 08002035
 8000044:	08002035 			@ <UNDEFINED> instruction: 08002035
 8000048:	08002035 			@ <UNDEFINED> instruction: 08002035
 800004c:	08002035 			@ <UNDEFINED> instruction: 08002035
 8000050:	08002035 			@ <UNDEFINED> instruction: 08002035
 8000054:	08002035 			@ <UNDEFINED> instruction: 08002035
 8000058:	08002035 			@ <UNDEFINED> instruction: 08002035
 800005c:	08002035 			@ <UNDEFINED> instruction: 08002035
 8000060:	08002035 			@ <UNDEFINED> instruction: 08002035
 8000064:	08002035 			@ <UNDEFINED> instruction: 08002035
 8000068:	08002035 			@ <UNDEFINED> instruction: 08002035
 800006c:	08002035 			@ <UNDEFINED> instruction: 08002035
 8000070:	08002035 			@ <UNDEFINED> instruction: 08002035
 8000074:	08002035 			@ <UNDEFINED> instruction: 08002035
 8000078:	08002035 			@ <UNDEFINED> instruction: 08002035
 800007c:	08002035 			@ <UNDEFINED> instruction: 08002035
 8000080:	08002035 			@ <UNDEFINED> instruction: 08002035
 8000084:	08002035 			@ <UNDEFINED> instruction: 08002035
 8000088:	08002035 			@ <UNDEFINED> instruction: 08002035
 800008c:	08002035 			@ <UNDEFINED> instruction: 08002035
 8000090:	08002035 			@ <UNDEFINED> instruction: 08002035
 8000094:	08002035 			@ <UNDEFINED> instruction: 08002035
 8000098:	08002035 			@ <UNDEFINED> instruction: 08002035
 800009c:	08002035 			@ <UNDEFINED> instruction: 08002035
 80000a0:	08002035 			@ <UNDEFINED> instruction: 08002035
 80000a4:	08002035 			@ <UNDEFINED> instruction: 08002035
 80000a8:	08002035 			@ <UNDEFINED> instruction: 08002035
 80000ac:	08002035 			@ <UNDEFINED> instruction: 08002035
 80000b0:	08002035 			@ <UNDEFINED> instruction: 08002035
 80000b4:	08002035 			@ <UNDEFINED> instruction: 08002035
 80000b8:	08002035 			@ <UNDEFINED> instruction: 08002035
 80000bc:	08002035 			@ <UNDEFINED> instruction: 08002035
 80000c0:	08002035 			@ <UNDEFINED> instruction: 08002035
 80000c4:	08002035 			@ <UNDEFINED> instruction: 08002035
 80000c8:	08002035 			@ <UNDEFINED> instruction: 08002035
 80000cc:	08002035 			@ <UNDEFINED> instruction: 08002035
 80000d0:	08002035 			@ <UNDEFINED> instruction: 08002035
 80000d4:	08002035 			@ <UNDEFINED> instruction: 08002035
 80000d8:	08002035 			@ <UNDEFINED> instruction: 08002035
 80000dc:	08002035 			@ <UNDEFINED> instruction: 08002035
 80000e0:	08002035 			@ <UNDEFINED> instruction: 08002035
 80000e4:	08002035 			@ <UNDEFINED> instruction: 08002035
 80000e8:	08002035 			@ <UNDEFINED> instruction: 08002035
 80000ec:	08002035 			@ <UNDEFINED> instruction: 08002035
 80000f0:	08002035 			@ <UNDEFINED> instruction: 08002035
 80000f4:	08002035 			@ <UNDEFINED> instruction: 08002035
 80000f8:	08002035 			@ <UNDEFINED> instruction: 08002035
 80000fc:	08002035 			@ <UNDEFINED> instruction: 08002035
 8000100:	08002035 			@ <UNDEFINED> instruction: 08002035
 8000104:	08002035 			@ <UNDEFINED> instruction: 08002035
 8000108:	08002035 			@ <UNDEFINED> instruction: 08002035
 800010c:	08002035 			@ <UNDEFINED> instruction: 08002035
 8000110:	08002035 			@ <UNDEFINED> instruction: 08002035
 8000114:	08002035 			@ <UNDEFINED> instruction: 08002035
 8000118:	08002035 			@ <UNDEFINED> instruction: 08002035
 800011c:	08002035 			@ <UNDEFINED> instruction: 08002035
 8000120:	08002035 			@ <UNDEFINED> instruction: 08002035
 8000124:	08002035 			@ <UNDEFINED> instruction: 08002035
 8000128:	08002035 			@ <UNDEFINED> instruction: 08002035
 800012c:	08002035 			@ <UNDEFINED> instruction: 08002035
 8000130:	08002035 			@ <UNDEFINED> instruction: 08002035
 8000134:	08002035 			@ <UNDEFINED> instruction: 08002035
 8000138:	08002035 			@ <UNDEFINED> instruction: 08002035
 800013c:	08002035 			@ <UNDEFINED> instruction: 08002035
 8000140:	08002035 			@ <UNDEFINED> instruction: 08002035
 8000144:	08002035 			@ <UNDEFINED> instruction: 08002035
 8000148:	08002035 			@ <UNDEFINED> instruction: 08002035
 800014c:	08002035 			@ <UNDEFINED> instruction: 08002035
 8000150:	08002035 			@ <UNDEFINED> instruction: 08002035
 8000154:	08002035 			@ <UNDEFINED> instruction: 08002035
 8000158:	08002035 			@ <UNDEFINED> instruction: 08002035
 800015c:	08002035 			@ <UNDEFINED> instruction: 08002035
 8000160:	08002035 			@ <UNDEFINED> instruction: 08002035
 8000164:	08002035 			@ <UNDEFINED> instruction: 08002035
 8000168:	08002035 			@ <UNDEFINED> instruction: 08002035
 800016c:	08002035 			@ <UNDEFINED> instruction: 08002035
 8000170:	08002035 			@ <UNDEFINED> instruction: 08002035
 8000174:	08002035 			@ <UNDEFINED> instruction: 08002035
 8000178:	08002035 			@ <UNDEFINED> instruction: 08002035
 800017c:	08002035 			@ <UNDEFINED> instruction: 08002035
 8000180:	08002035 			@ <UNDEFINED> instruction: 08002035
 8000184:	08002035 			@ <UNDEFINED> instruction: 08002035
 8000188:	08002035 			@ <UNDEFINED> instruction: 08002035
 800018c:	08002035 			@ <UNDEFINED> instruction: 08002035
 8000190:	08002035 			@ <UNDEFINED> instruction: 08002035
 8000194:	00000000 			@ <UNDEFINED> instruction: 00000000
 8000198:	08002035 			@ <UNDEFINED> instruction: 08002035
 800019c:	08002035 			@ <UNDEFINED> instruction: 08002035
 80001a0:	08002035 			@ <UNDEFINED> instruction: 08002035
 80001a4:	08002035 			@ <UNDEFINED> instruction: 08002035
 80001a8:	08002035 			@ <UNDEFINED> instruction: 08002035
 80001ac:	08002035 			@ <UNDEFINED> instruction: 08002035
 80001b0:	08002035 			@ <UNDEFINED> instruction: 08002035
 80001b4:	08002035 			@ <UNDEFINED> instruction: 08002035
 80001b8:	08002035 			@ <UNDEFINED> instruction: 08002035
 80001bc:	08002035 			@ <UNDEFINED> instruction: 08002035
 80001c0:	08002035 			@ <UNDEFINED> instruction: 08002035
 80001c4:	08002035 			@ <UNDEFINED> instruction: 08002035
 80001c8:	08002035 			@ <UNDEFINED> instruction: 08002035
 80001cc:	08002035 			@ <UNDEFINED> instruction: 08002035
 80001d0:	08002035 			@ <UNDEFINED> instruction: 08002035
 80001d4:	08002035 			@ <UNDEFINED> instruction: 08002035

Disassembly of section .text:

08000200 <deregister_tm_clones>:
 8000200:	4803      	ldr	r0, [pc, #12]	@ (8000210 <deregister_tm_clones+0x10>)
 8000202:	4b04      	ldr	r3, [pc, #16]	@ (8000214 <deregister_tm_clones+0x14>)
 8000204:	4283      	cmp	r3, r0
 8000206:	d002      	beq.n	800020e <deregister_tm_clones+0xe>
 8000208:	4b03      	ldr	r3, [pc, #12]	@ (8000218 <deregister_tm_clones+0x18>)
 800020a:	b103      	cbz	r3, 800020e <deregister_tm_clones+0xe>
 800020c:	4718      	bx	r3
 800020e:	4770      	bx	lr
 8000210:	2000056c 			@ <UNDEFINED> instruction: 2000056c
 8000214:	2000056c 			@ <UNDEFINED> instruction: 2000056c
 8000218:	00000000 			@ <UNDEFINED> instruction: 00000000

0800021c <register_tm_clones>:
 800021c:	4805      	ldr	r0, [pc, #20]	@ (8000234 <register_tm_clones+0x18>)
 800021e:	4b06      	ldr	r3, [pc, #24]	@ (8000238 <register_tm_clones+0x1c>)
 8000220:	1a1b      	subs	r3, r3, r0
 8000222:	0fd9      	lsrs	r1, r3, #31
 8000224:	eb01 01a3 	add.w	r1, r1, r3, asr #2
 8000228:	1049      	asrs	r1, r1, #1
 800022a:	d002      	beq.n	8000232 <register_tm_clones+0x16>
 800022c:	4b03      	ldr	r3, [pc, #12]	@ (800023c <register_tm_clones+0x20>)
 800022e:	b103      	cbz	r3, 8000232 <register_tm_clones+0x16>
 8000230:	4718      	bx	r3
 8000232:	4770      	bx	lr
 8000234:	2000056c 			@ <UNDEFINED> instruction: 2000056c
 8000238:	2000056c 			@ <UNDEFINED> instruction: 2000056c
 800023c:	00000000 			@ <UNDEFINED> instruction: 00000000

08000240 <__do_global_dtors_aux>:
 8000240:	b510      	push	{r4, lr}
 8000242:	4c06      	ldr	r4, [pc, #24]	@ (800025c <__do_global_dtors_aux+0x1c>)
 8000244:	7823      	ldrb	r3, [r4, #0]
 8000246:	b943      	cbnz	r3, 800025a <__do_global_dtors_aux+0x1a>
 8000248:	f7ff ffda 	bl	8000200 <deregister_tm_clones>
 800024c:	4b04      	ldr	r3, [pc, #16]	@ (8000260 <__do_global_dtors_aux+0x20>)
 800024e:	b113      	cbz	r3, 8000256 <__do_global_dtors_aux+0x16>
 8000250:	4804      	ldr	r0, [pc, #16]	@ (8000264 <__do_global_dtors_aux+0x24>)
 8000252:	f3af 8000 	nop.w
 8000256:	2301      	movs	r3, #1
 8000258:	7023      	strb	r3, [r4, #0]
 800025a:	bd10      	pop	{r4, pc}
 800025c:	2000056c 			@ <UNDEFINED> instruction: 2000056c
 8000260:	00000000 			@ <UNDEFINED> instruction: 00000000
 8000264:	08002634 			@ <UNDEFINED> instruction: 08002634

08000268 <frame_dummy>:
 8000268:	b508      	push	{r3, lr}
 800026a:	4b04      	ldr	r3, [pc, #16]	@ (800027c <frame_dummy+0x14>)
 800026c:	b11b      	cbz	r3, 8000276 <frame_dummy+0xe>
 800026e:	4904      	ldr	r1, [pc, #16]	@ (8000280 <frame_dummy+0x18>)
 8000270:	4804      	ldr	r0, [pc, #16]	@ (8000284 <frame_dummy+0x1c>)
 8000272:	f3af 8000 	nop.w
 8000276:	e8bd 4008 	ldmia.w	sp!, {r3, lr}
 800027a:	e7cf      	b.n	800021c <register_tm_clones>
 800027c:	00000000 			@ <UNDEFINED> instruction: 00000000
 8000280:	20000570 			@ <UNDEFINED> instruction: 20000570
 8000284:	08002634 			@ <UNDEFINED> instruction: 08002634

08000288 <memset>:
 8000288:	0783      	lsls	r3, r0, #30
 800028a:	b530      	push	{r4, r5, lr}
 800028c:	d047      	beq.n	800031e <memset+0x96>
 800028e:	1e54      	subs	r4, r2, #1
 8000290:	2a00      	cmp	r2, #0
 8000292:	d03e      	beq.n	8000312 <memset+0x8a>
 8000294:	b2ca      	uxtb	r2, r1
 8000296:	4603      	mov	r3, r0
 8000298:	e001      	b.n	800029e <memset+0x16>
 800029a:	3c01      	subs	r4, #1
 800029c:	d339      	bcc.n	8000312 <memset+0x8a>
 800029e:	f803 2b01 	strb.w	r2, [r3], #1
 80002a2:	079d      	lsls	r5, r3, #30
 80002a4:	d1f9      	bne.n	800029a <memset+0x12>
 80002a6:	2c03      	cmp	r4, #3
 80002a8:	d92c      	bls.n	8000304 <memset+0x7c>
 80002aa:	b2cd      	uxtb	r5, r1
 80002ac:	eb05 2505 	add.w	r5, r5, r5, lsl #8
 80002b0:	2c0f      	cmp	r4, #15
 80002b2:	eb05 4505 	add.w	r5, r5, r5, lsl #16
 80002b6:	d935      	bls.n	8000324 <memset+0x9c>
 80002b8:	f1a4 0210 	sub.w	r2, r4, #16
 80002bc:	f022 0c0f 	bic.w	ip, r2, #15
 80002c0:	f103 0e10 	add.w	lr, r3, #16
 80002c4:	44e6      	add	lr, ip
 80002c6:	ea4f 1c12 	mov.w	ip, r2, lsr #4
 80002ca:	461a      	mov	r2, r3
 80002cc:	e9c2 5500 	strd	r5, r5, [r2]
 80002d0:	e9c2 5502 	strd	r5, r5, [r2, #8]
 80002d4:	3210      	adds	r2, #16
 80002d6:	4572      	cmp	r2, lr
 80002d8:	d1f8      	bne.n	80002cc <memset+0x44>
 80002da:	f10c 0201 	add.w	r2, ip, #1
 80002de:	f014 0f0c 	tst.w	r4, #12
 80002e2:	eb03 1202 	add.w	r2, r3, r2, lsl #4
 80002e6:	f004 0c0f 	and.w	ip, r4, #15
 80002ea:	d013      	beq.n	8000314 <memset+0x8c>
 80002ec:	f1ac 0304 	sub.w	r3, ip, #4
 80002f0:	f023 0303 	bic.w	r3, r3, #3
 80002f4:	3304      	adds	r3, #4
 80002f6:	4413      	add	r3, r2
 80002f8:	f842 5b04 	str.w	r5, [r2], #4
 80002fc:	4293      	cmp	r3, r2
 80002fe:	d1fb      	bne.n	80002f8 <memset+0x70>
 8000300:	f00c 0403 	and.w	r4, ip, #3
 8000304:	b12c      	cbz	r4, 8000312 <memset+0x8a>
 8000306:	b2c9      	uxtb	r1, r1
 8000308:	441c      	add	r4, r3
 800030a:	f803 1b01 	strb.w	r1, [r3], #1
 800030e:	42a3      	cmp	r3, r4
 8000310:	d1fb      	bne.n	800030a <memset+0x82>
 8000312:	bd30      	pop	{r4, r5, pc}
 8000314:	4664      	mov	r4, ip
 8000316:	4613      	mov	r3, r2
 8000318:	2c00      	cmp	r4, #0
 800031a:	d1f4      	bne.n	8000306 <memset+0x7e>
 800031c:	e7f9      	b.n	8000312 <memset+0x8a>
 800031e:	4603      	mov	r3, r0
 8000320:	4614      	mov	r4, r2
 8000322:	e7c0      	b.n	80002a6 <memset+0x1e>
 8000324:	461a      	mov	r2, r3
 8000326:	46a4      	mov	ip, r4
 8000328:	e7e0      	b.n	80002ec <memset+0x64>
 800032a:	bf00      	nop

0800032c <_puts_r>:
 800032c:	b570      	push	{r4, r5, r6, lr}
 800032e:	4604      	mov	r4, r0
 8000330:	b08a      	sub	sp, #40	@ 0x28
 8000332:	4608      	mov	r0, r1
 8000334:	460d      	mov	r5, r1
 8000336:	f000 f863 	bl	8000400 <strlen>
 800033a:	4e16      	ldr	r6, [pc, #88]	@ (8000394 <_puts_r+0x68>)
 800033c:	6b62      	ldr	r2, [r4, #52]	@ 0x34
 800033e:	9007      	str	r0, [sp, #28]
 8000340:	2101      	movs	r1, #1
 8000342:	1843      	adds	r3, r0, r1
 8000344:	e9cd 6108 	strd	r6, r1, [sp, #32]
 8000348:	2002      	movs	r0, #2
 800034a:	a906      	add	r1, sp, #24
 800034c:	9103      	str	r1, [sp, #12]
 800034e:	9506      	str	r5, [sp, #24]
 8000350:	68a1      	ldr	r1, [r4, #8]
 8000352:	9305      	str	r3, [sp, #20]
 8000354:	9004      	str	r0, [sp, #16]
 8000356:	b1a2      	cbz	r2, 8000382 <_puts_r+0x56>
 8000358:	f9b1 200c 	ldrsh.w	r2, [r1, #12]
 800035c:	6e4b      	ldr	r3, [r1, #100]	@ 0x64
 800035e:	0490      	lsls	r0, r2, #18
 8000360:	d405      	bmi.n	800036e <_puts_r+0x42>
 8000362:	f442 5200 	orr.w	r2, r2, #8192	@ 0x2000
 8000366:	f423 5300 	bic.w	r3, r3, #8192	@ 0x2000
 800036a:	818a      	strh	r2, [r1, #12]
 800036c:	664b      	str	r3, [r1, #100]	@ 0x64
 800036e:	049b      	lsls	r3, r3, #18
 8000370:	d40d      	bmi.n	800038e <_puts_r+0x62>
 8000372:	aa03      	add	r2, sp, #12
 8000374:	4620      	mov	r0, r4
 8000376:	f000 fe27 	bl	8000fc8 <__sfvwrite_r>
 800037a:	b940      	cbnz	r0, 800038e <_puts_r+0x62>
 800037c:	200a      	movs	r0, #10
 800037e:	b00a      	add	sp, #40	@ 0x28
 8000380:	bd70      	pop	{r4, r5, r6, pc}
 8000382:	4620      	mov	r0, r4
 8000384:	9101      	str	r1, [sp, #4]
 8000386:	f000 f991 	bl	80006ac <__sinit>
 800038a:	9901      	ldr	r1, [sp, #4]
 800038c:	e7e4      	b.n	8000358 <_puts_r+0x2c>
 800038e:	f04f 30ff 	mov.w	r0, #4294967295	@ 0xffffffff
 8000392:	e7f4      	b.n	800037e <_puts_r+0x52>
 8000394:	0800266c 			@ <UNDEFINED> instruction: 0800266c

08000398 <puts>:
 8000398:	4b02      	ldr	r3, [pc, #8]	@ (80003a4 <puts+0xc>)
 800039a:	4601      	mov	r1, r0
 800039c:	6818      	ldr	r0, [r3, #0]
 800039e:	f7ff bfc5 	b.w	800032c <_puts_r>
 80003a2:	bf00      	nop
 80003a4:	20000420 			@ <UNDEFINED> instruction: 20000420

080003a8 <__libc_fini_array>:
 80003a8:	b538      	push	{r3, r4, r5, lr}
 80003aa:	4d07      	ldr	r5, [pc, #28]	@ (80003c8 <__libc_fini_array+0x20>)
 80003ac:	4c07      	ldr	r4, [pc, #28]	@ (80003cc <__libc_fini_array+0x24>)
 80003ae:	1b2c      	subs	r4, r5, r4
 80003b0:	10a4      	asrs	r4, r4, #2
 80003b2:	d005      	beq.n	80003c0 <__libc_fini_array+0x18>
 80003b4:	3c01      	subs	r4, #1
 80003b6:	f855 3d04 	ldr.w	r3, [r5, #-4]!
 80003ba:	4798      	blx	r3
 80003bc:	2c00      	cmp	r4, #0
 80003be:	d1f9      	bne.n	80003b4 <__libc_fini_array+0xc>
 80003c0:	e8bd 4038 	ldmia.w	sp!, {r3, r4, r5, lr}
 80003c4:	f002 b93c 	b.w	8002640 <_fini>
 80003c8:	08002684 			@ <UNDEFINED> instruction: 08002684
 80003cc:	08002680 			@ <UNDEFINED> instruction: 08002680
	...

08000400 <strlen>:
 8000400:	b430      	push	{r4, r5}
 8000402:	f890 f000 	pld	[r0]
 8000406:	f020 0107 	bic.w	r1, r0, #7
 800040a:	f06f 0c00 	mvn.w	ip, #0
 800040e:	f010 0407 	ands.w	r4, r0, #7
 8000412:	f891 f020 	pld	[r1, #32]
 8000416:	f040 8048 	bne.w	80004aa <strlen+0xaa>
 800041a:	f04f 0400 	mov.w	r4, #0
 800041e:	f06f 0007 	mvn.w	r0, #7
 8000422:	e9d1 2300 	ldrd	r2, r3, [r1]
 8000426:	f891 f040 	pld	[r1, #64]	@ 0x40
 800042a:	f100 0008 	add.w	r0, r0, #8
 800042e:	fa82 f24c 	uadd8	r2, r2, ip
 8000432:	faa4 f28c 	sel	r2, r4, ip
 8000436:	fa83 f34c 	uadd8	r3, r3, ip
 800043a:	faa2 f38c 	sel	r3, r2, ip
 800043e:	bb4b      	cbnz	r3, 8000494 <strlen+0x94>
 8000440:	e9d1 2302 	ldrd	r2, r3, [r1, #8]
 8000444:	fa82 f24c 	uadd8	r2, r2, ip
 8000448:	f100 0008 	add.w	r0, r0, #8
 800044c:	faa4 f28c 	sel	r2, r4, ip
 8000450:	fa83 f34c 	uadd8	r3, r3, ip
 8000454:	faa2 f38c 	sel	r3, r2, ip
 8000458:	b9e3      	cbnz	r3, 8000494 <strlen+0x94>
 800045a:	e9d1 2304 	ldrd	r2, r3, [r1, #16]
 800045e:	fa82 f24c 	uadd8	r2, r2, ip
 8000462:	f100 0008 	add.w	r0, r0, #8
 8000466:	faa4 f28c 	sel	r2, r4, ip
 800046a:	fa83 f34c 	uadd8	r3, r3, ip
 800046e:	faa2 f38c 	sel	r3, r2, ip
 8000472:	b97b      	cbnz	r3, 8000494 <strlen+0x94>
 8000474:	e9d1 2306 	ldrd	r2, r3, [r1, #24]
 8000478:	f101 0120 	add.w	r1, r1, #32
 800047c:	fa82 f24c 	uadd8	r2, r2, ip
 8000480:	f100 0008 	add.w	r0, r0, #8
 8000484:	faa4 f28c 	sel	r2, r4, ip
 8000488:	fa83 f34c 	uadd8	r3, r3, ip
 800048c:	faa2 f38c 	sel	r3, r2, ip
 8000490:	2b00      	cmp	r3, #0
 8000492:	d0c6      	beq.n	8000422 <strlen+0x22>
 8000494:	2a00      	cmp	r2, #0
 8000496:	bf04      	itt	eq
 8000498:	3004      	addeq	r0, #4
 800049a:	461a      	moveq	r2, r3
 800049c:	ba12      	rev	r2, r2
 800049e:	fab2 f282 	clz	r2, r2
 80004a2:	eb00 00d2 	add.w	r0, r0, r2, lsr #3
 80004a6:	bc30      	pop	{r4, r5}
 80004a8:	4770      	bx	lr
 80004aa:	e9d1 2300 	ldrd	r2, r3, [r1]
 80004ae:	f004 0503 	and.w	r5, r4, #3
 80004b2:	f1c4 0000 	rsb	r0, r4, #0
 80004b6:	ea4f 05c5 	mov.w	r5, r5, lsl #3
 80004ba:	f014 0f04 	tst.w	r4, #4
 80004be:	f891 f040 	pld	[r1, #64]	@ 0x40
 80004c2:	fa0c f505 	lsl.w	r5, ip, r5
 80004c6:	ea62 0205 	orn	r2, r2, r5
 80004ca:	bf1c      	itt	ne
 80004cc:	ea63 0305 	ornne	r3, r3, r5
 80004d0:	4662      	movne	r2, ip
 80004d2:	f04f 0400 	mov.w	r4, #0
 80004d6:	e7aa      	b.n	800042e <strlen+0x2e>

080004d8 <__fp_lock>:
 80004d8:	2000      	movs	r0, #0
 80004da:	4770      	bx	lr

080004dc <stdio_exit_handler>:
 80004dc:	4a02      	ldr	r2, [pc, #8]	@ (80004e8 <stdio_exit_handler+0xc>)
 80004de:	4903      	ldr	r1, [pc, #12]	@ (80004ec <stdio_exit_handler+0x10>)
 80004e0:	4803      	ldr	r0, [pc, #12]	@ (80004f0 <stdio_exit_handler+0x14>)
 80004e2:	f001 b8d3 	b.w	800168c <_fwalk_sglue>
 80004e6:	bf00      	nop
 80004e8:	20000000 			@ <UNDEFINED> instruction: 20000000
 80004ec:	080006fd 			@ <UNDEFINED> instruction: 080006fd
 80004f0:	20000428 			@ <UNDEFINED> instruction: 20000428

080004f4 <cleanup_stdio>:
 80004f4:	4b0c      	ldr	r3, [pc, #48]	@ (8000528 <cleanup_stdio+0x34>)
 80004f6:	6841      	ldr	r1, [r0, #4]
 80004f8:	4299      	cmp	r1, r3
 80004fa:	b510      	push	{r4, lr}
 80004fc:	4604      	mov	r4, r0
 80004fe:	d001      	beq.n	8000504 <cleanup_stdio+0x10>
 8000500:	f000 f8fc 	bl	80006fc <_fclose_r>
 8000504:	68a1      	ldr	r1, [r4, #8]
 8000506:	4b09      	ldr	r3, [pc, #36]	@ (800052c <cleanup_stdio+0x38>)
 8000508:	4299      	cmp	r1, r3
 800050a:	d002      	beq.n	8000512 <cleanup_stdio+0x1e>
 800050c:	4620      	mov	r0, r4
 800050e:	f000 f8f5 	bl	80006fc <_fclose_r>
 8000512:	68e1      	ldr	r1, [r4, #12]
 8000514:	4b06      	ldr	r3, [pc, #24]	@ (8000530 <cleanup_stdio+0x3c>)
 8000516:	4299      	cmp	r1, r3
 8000518:	d004      	beq.n	8000524 <cleanup_stdio+0x30>
 800051a:	4620      	mov	r0, r4
 800051c:	e8bd 4010 	ldmia.w	sp!, {r4, lr}
 8000520:	f000 b8ec 	b.w	80006fc <_fclose_r>
 8000524:	bd10      	pop	{r4, pc}
 8000526:	bf00      	nop
 8000528:	20000588 			@ <UNDEFINED> instruction: 20000588
 800052c:	200005f0 	strdcs	r0, [r0], -r0	@ <UNPREDICTABLE>
 8000530:	20000658 			@ <UNDEFINED> instruction: 20000658

08000534 <__fp_unlock>:
 8000534:	2000      	movs	r0, #0
 8000536:	4770      	bx	lr

08000538 <global_stdio_init.part.0>:
 8000538:	e92d 43f8 	stmdb	sp!, {r3, r4, r5, r6, r7, r8, r9, lr}
 800053c:	4c2a      	ldr	r4, [pc, #168]	@ (80005e8 <global_stdio_init.part.0+0xb0>)
 800053e:	492b      	ldr	r1, [pc, #172]	@ (80005ec <global_stdio_init.part.0+0xb4>)
 8000540:	f8df 90bc 	ldr.w	r9, [pc, #188]	@ 8000600 <global_stdio_init.part.0+0xc8>
 8000544:	f8df 80bc 	ldr.w	r8, [pc, #188]	@ 8000604 <global_stdio_init.part.0+0xcc>
 8000548:	4f29      	ldr	r7, [pc, #164]	@ (80005f0 <global_stdio_init.part.0+0xb8>)
 800054a:	f8c4 1138 	str.w	r1, [r4, #312]	@ 0x138
 800054e:	2500      	movs	r5, #0
 8000550:	2304      	movs	r3, #4
 8000552:	2208      	movs	r2, #8
 8000554:	4629      	mov	r1, r5
 8000556:	f104 005c 	add.w	r0, r4, #92	@ 0x5c
 800055a:	4e26      	ldr	r6, [pc, #152]	@ (80005f4 <global_stdio_init.part.0+0xbc>)
 800055c:	60e3      	str	r3, [r4, #12]
 800055e:	e9c4 5500 	strd	r5, r5, [r4]
 8000562:	e9c4 5504 	strd	r5, r5, [r4, #16]
 8000566:	60a5      	str	r5, [r4, #8]
 8000568:	6665      	str	r5, [r4, #100]	@ 0x64
 800056a:	61a5      	str	r5, [r4, #24]
 800056c:	f7ff fe8c 	bl	8000288 <memset>
 8000570:	4b21      	ldr	r3, [pc, #132]	@ (80005f8 <global_stdio_init.part.0+0xc0>)
 8000572:	6763      	str	r3, [r4, #116]	@ 0x74
 8000574:	2208      	movs	r2, #8
 8000576:	4629      	mov	r1, r5
 8000578:	f104 00c4 	add.w	r0, r4, #196	@ 0xc4
 800057c:	e9c4 4907 	strd	r4, r9, [r4, #28]
 8000580:	e9c4 8709 	strd	r8, r7, [r4, #36]	@ 0x24
 8000584:	e9c4 551a 	strd	r5, r5, [r4, #104]	@ 0x68
 8000588:	e9c4 551e 	strd	r5, r5, [r4, #120]	@ 0x78
 800058c:	6725      	str	r5, [r4, #112]	@ 0x70
 800058e:	f8c4 50cc 	str.w	r5, [r4, #204]	@ 0xcc
 8000592:	f8c4 5080 	str.w	r5, [r4, #128]	@ 0x80
 8000596:	62e6      	str	r6, [r4, #44]	@ 0x2c
 8000598:	f7ff fe76 	bl	8000288 <memset>
 800059c:	4b17      	ldr	r3, [pc, #92]	@ (80005fc <global_stdio_init.part.0+0xc4>)
 800059e:	f8c4 30dc 	str.w	r3, [r4, #220]	@ 0xdc
 80005a2:	4629      	mov	r1, r5
 80005a4:	f104 0368 	add.w	r3, r4, #104	@ 0x68
 80005a8:	2208      	movs	r2, #8
 80005aa:	f504 7096 	add.w	r0, r4, #300	@ 0x12c
 80005ae:	f8c4 3084 	str.w	r3, [r4, #132]	@ 0x84
 80005b2:	e9c4 9822 	strd	r9, r8, [r4, #136]	@ 0x88
 80005b6:	e9c4 7624 	strd	r7, r6, [r4, #144]	@ 0x90
 80005ba:	e9c4 5534 	strd	r5, r5, [r4, #208]	@ 0xd0
 80005be:	e9c4 5538 	strd	r5, r5, [r4, #224]	@ 0xe0
 80005c2:	f8c4 50d8 	str.w	r5, [r4, #216]	@ 0xd8
 80005c6:	f8c4 5134 	str.w	r5, [r4, #308]	@ 0x134
 80005ca:	f8c4 50e8 	str.w	r5, [r4, #232]	@ 0xe8
 80005ce:	f7ff fe5b 	bl	8000288 <memset>
 80005d2:	f104 03d0 	add.w	r3, r4, #208	@ 0xd0
 80005d6:	e9c4 983c 	strd	r9, r8, [r4, #240]	@ 0xf0
 80005da:	e9c4 763e 	strd	r7, r6, [r4, #248]	@ 0xf8
 80005de:	f8c4 30ec 	str.w	r3, [r4, #236]	@ 0xec
 80005e2:	e8bd 83f8 	ldmia.w	sp!, {r3, r4, r5, r6, r7, r8, r9, pc}
 80005e6:	bf00      	nop
 80005e8:	20000588 			@ <UNDEFINED> instruction: 20000588
 80005ec:	080004dd 			@ <UNDEFINED> instruction: 080004dd
 80005f0:	08001465 			@ <UNDEFINED> instruction: 08001465
 80005f4:	08001489 			@ <UNDEFINED> instruction: 08001489
 80005f8:	00010009 			@ <UNDEFINED> instruction: 00010009
 80005fc:	00020012 			@ <UNDEFINED> instruction: 00020012
 8000600:	080013fd 			@ <UNDEFINED> instruction: 080013fd
 8000604:	08001425 			@ <UNDEFINED> instruction: 08001425

08000608 <__sfp>:
 8000608:	b5f8      	push	{r3, r4, r5, r6, r7, lr}
 800060a:	4b25      	ldr	r3, [pc, #148]	@ (80006a0 <__sfp+0x98>)
 800060c:	f8d3 3138 	ldr.w	r3, [r3, #312]	@ 0x138
 8000610:	4606      	mov	r6, r0
 8000612:	2b00      	cmp	r3, #0
 8000614:	d03c      	beq.n	8000690 <__sfp+0x88>
 8000616:	4f23      	ldr	r7, [pc, #140]	@ (80006a4 <__sfp+0x9c>)
 8000618:	e9d7 3401 	ldrd	r3, r4, [r7, #4]
 800061c:	3b01      	subs	r3, #1
 800061e:	d504      	bpl.n	800062a <__sfp+0x22>
 8000620:	e01d      	b.n	800065e <__sfp+0x56>
 8000622:	1c5a      	adds	r2, r3, #1
 8000624:	f104 0468 	add.w	r4, r4, #104	@ 0x68
 8000628:	d019      	beq.n	800065e <__sfp+0x56>
 800062a:	f9b4 500c 	ldrsh.w	r5, [r4, #12]
 800062e:	3b01      	subs	r3, #1
 8000630:	2d00      	cmp	r5, #0
 8000632:	d1f6      	bne.n	8000622 <__sfp+0x1a>
 8000634:	4b1c      	ldr	r3, [pc, #112]	@ (80006a8 <__sfp+0xa0>)
 8000636:	60e3      	str	r3, [r4, #12]
 8000638:	e9c4 5501 	strd	r5, r5, [r4, #4]
 800063c:	e9c4 5504 	strd	r5, r5, [r4, #16]
 8000640:	6665      	str	r5, [r4, #100]	@ 0x64
 8000642:	6025      	str	r5, [r4, #0]
 8000644:	61a5      	str	r5, [r4, #24]
 8000646:	2208      	movs	r2, #8
 8000648:	4629      	mov	r1, r5
 800064a:	f104 005c 	add.w	r0, r4, #92	@ 0x5c
 800064e:	f7ff fe1b 	bl	8000288 <memset>
 8000652:	e9c4 550c 	strd	r5, r5, [r4, #48]	@ 0x30
 8000656:	e9c4 5511 	strd	r5, r5, [r4, #68]	@ 0x44
 800065a:	4620      	mov	r0, r4
 800065c:	bdf8      	pop	{r3, r4, r5, r6, r7, pc}
 800065e:	683d      	ldr	r5, [r7, #0]
 8000660:	b10d      	cbz	r5, 8000666 <__sfp+0x5e>
 8000662:	462f      	mov	r7, r5
 8000664:	e7d8      	b.n	8000618 <__sfp+0x10>
 8000666:	f44f 71d6 	mov.w	r1, #428	@ 0x1ac
 800066a:	4630      	mov	r0, r6
 800066c:	f000 f88e 	bl	800078c <_malloc_r>
 8000670:	4604      	mov	r4, r0
 8000672:	b180      	cbz	r0, 8000696 <__sfp+0x8e>
 8000674:	2304      	movs	r3, #4
 8000676:	e9c0 5300 	strd	r5, r3, [r0]
 800067a:	300c      	adds	r0, #12
 800067c:	4629      	mov	r1, r5
 800067e:	60a0      	str	r0, [r4, #8]
 8000680:	f44f 72d0 	mov.w	r2, #416	@ 0x1a0
 8000684:	4625      	mov	r5, r4
 8000686:	f7ff fdff 	bl	8000288 <memset>
 800068a:	603c      	str	r4, [r7, #0]
 800068c:	462f      	mov	r7, r5
 800068e:	e7c3      	b.n	8000618 <__sfp+0x10>
 8000690:	f7ff ff52 	bl	8000538 <global_stdio_init.part.0>
 8000694:	e7bf      	b.n	8000616 <__sfp+0xe>
 8000696:	230c      	movs	r3, #12
 8000698:	6038      	str	r0, [r7, #0]
 800069a:	6033      	str	r3, [r6, #0]
 800069c:	e7dd      	b.n	800065a <__sfp+0x52>
 800069e:	bf00      	nop
 80006a0:	20000588 			@ <UNDEFINED> instruction: 20000588
 80006a4:	20000000 			@ <UNDEFINED> instruction: 20000000
 80006a8:	ffff0001 			@ <UNDEFINED> instruction: ffff0001

080006ac <__sinit>:
 80006ac:	6b43      	ldr	r3, [r0, #52]	@ 0x34
 80006ae:	b103      	cbz	r3, 80006b2 <__sinit+0x6>
 80006b0:	4770      	bx	lr
 80006b2:	4b04      	ldr	r3, [pc, #16]	@ (80006c4 <__sinit+0x18>)
 80006b4:	4a04      	ldr	r2, [pc, #16]	@ (80006c8 <__sinit+0x1c>)
 80006b6:	f8d3 3138 	ldr.w	r3, [r3, #312]	@ 0x138
 80006ba:	6342      	str	r2, [r0, #52]	@ 0x34
 80006bc:	2b00      	cmp	r3, #0
 80006be:	d1f7      	bne.n	80006b0 <__sinit+0x4>
 80006c0:	e73a      	b.n	8000538 <global_stdio_init.part.0>
 80006c2:	bf00      	nop
 80006c4:	20000588 			@ <UNDEFINED> instruction: 20000588
 80006c8:	080004f5 			@ <UNDEFINED> instruction: 080004f5

080006cc <__sfp_lock_acquire>:
 80006cc:	4770      	bx	lr
 80006ce:	bf00      	nop

080006d0 <__sfp_lock_release>:
 80006d0:	4770      	bx	lr
 80006d2:	bf00      	nop

080006d4 <__fp_lock_all>:
 80006d4:	4a02      	ldr	r2, [pc, #8]	@ (80006e0 <__fp_lock_all+0xc>)
 80006d6:	4903      	ldr	r1, [pc, #12]	@ (80006e4 <__fp_lock_all+0x10>)
 80006d8:	2000      	movs	r0, #0
 80006da:	f000 bfd7 	b.w	800168c <_fwalk_sglue>
 80006de:	bf00      	nop
 80006e0:	20000000 			@ <UNDEFINED> instruction: 20000000
 80006e4:	080004d9 			@ <UNDEFINED> instruction: 080004d9

080006e8 <__fp_unlock_all>:
 80006e8:	4a02      	ldr	r2, [pc, #8]	@ (80006f4 <__fp_unlock_all+0xc>)
 80006ea:	4903      	ldr	r1, [pc, #12]	@ (80006f8 <__fp_unlock_all+0x10>)
 80006ec:	2000      	movs	r0, #0
 80006ee:	f000 bfcd 	b.w	800168c <_fwalk_sglue>
 80006f2:	bf00      	nop
 80006f4:	20000000 			@ <UNDEFINED> instruction: 20000000
 80006f8:	08000535 			@ <UNDEFINED> instruction: 08000535

080006fc <_fclose_r>:
 80006fc:	b570      	push	{r4, r5, r6, lr}
 80006fe:	b139      	cbz	r1, 8000710 <_fclose_r+0x14>
 8000700:	4606      	mov	r6, r0
 8000702:	460c      	mov	r4, r1
 8000704:	b108      	cbz	r0, 800070a <_fclose_r+0xe>
 8000706:	6b43      	ldr	r3, [r0, #52]	@ 0x34
 8000708:	b383      	cbz	r3, 800076c <_fclose_r+0x70>
 800070a:	f9b4 300c 	ldrsh.w	r3, [r4, #12]
 800070e:	b913      	cbnz	r3, 8000716 <_fclose_r+0x1a>
 8000710:	2500      	movs	r5, #0
 8000712:	4628      	mov	r0, r5
 8000714:	bd70      	pop	{r4, r5, r6, pc}
 8000716:	4621      	mov	r1, r4
 8000718:	4630      	mov	r0, r6
 800071a:	f000 feb9 	bl	8001490 <__sflush_r>
 800071e:	6ae3      	ldr	r3, [r4, #44]	@ 0x2c
 8000720:	4605      	mov	r5, r0
 8000722:	b133      	cbz	r3, 8000732 <_fclose_r+0x36>
 8000724:	69e1      	ldr	r1, [r4, #28]
 8000726:	4630      	mov	r0, r6
 8000728:	4798      	blx	r3
 800072a:	2800      	cmp	r0, #0
 800072c:	bfb8      	it	lt
 800072e:	f04f 35ff 	movlt.w	r5, #4294967295	@ 0xffffffff
 8000732:	89a3      	ldrh	r3, [r4, #12]
 8000734:	061b      	lsls	r3, r3, #24
 8000736:	d41c      	bmi.n	8000772 <_fclose_r+0x76>
 8000738:	6b21      	ldr	r1, [r4, #48]	@ 0x30
 800073a:	b141      	cbz	r1, 800074e <_fclose_r+0x52>
 800073c:	f104 0340 	add.w	r3, r4, #64	@ 0x40
 8000740:	4299      	cmp	r1, r3
 8000742:	d002      	beq.n	800074a <_fclose_r+0x4e>
 8000744:	4630      	mov	r0, r6
 8000746:	f000 fb27 	bl	8000d98 <_free_r>
 800074a:	2300      	movs	r3, #0
 800074c:	6323      	str	r3, [r4, #48]	@ 0x30
 800074e:	6c61      	ldr	r1, [r4, #68]	@ 0x44
 8000750:	b121      	cbz	r1, 800075c <_fclose_r+0x60>
 8000752:	4630      	mov	r0, r6
 8000754:	f000 fb20 	bl	8000d98 <_free_r>
 8000758:	2300      	movs	r3, #0
 800075a:	6463      	str	r3, [r4, #68]	@ 0x44
 800075c:	f7ff ffb6 	bl	80006cc <__sfp_lock_acquire>
 8000760:	2300      	movs	r3, #0
 8000762:	81a3      	strh	r3, [r4, #12]
 8000764:	f7ff ffb4 	bl	80006d0 <__sfp_lock_release>
 8000768:	4628      	mov	r0, r5
 800076a:	bd70      	pop	{r4, r5, r6, pc}
 800076c:	f7ff ff9e 	bl	80006ac <__sinit>
 8000770:	e7cb      	b.n	800070a <_fclose_r+0xe>
 8000772:	6921      	ldr	r1, [r4, #16]
 8000774:	4630      	mov	r0, r6
 8000776:	f000 fb0f 	bl	8000d98 <_free_r>
 800077a:	e7dd      	b.n	8000738 <_fclose_r+0x3c>

0800077c <fclose>:
 800077c:	4b02      	ldr	r3, [pc, #8]	@ (8000788 <fclose+0xc>)
 800077e:	4601      	mov	r1, r0
 8000780:	6818      	ldr	r0, [r3, #0]
 8000782:	f7ff bfbb 	b.w	80006fc <_fclose_r>
 8000786:	bf00      	nop
 8000788:	20000420 			@ <UNDEFINED> instruction: 20000420

0800078c <_malloc_r>:
 800078c:	e92d 4ff0 	stmdb	sp!, {r4, r5, r6, r7, r8, r9, sl, fp, lr}
 8000790:	f101 050b 	add.w	r5, r1, #11
 8000794:	2d16      	cmp	r5, #22
 8000796:	b083      	sub	sp, #12
 8000798:	4606      	mov	r6, r0
 800079a:	d823      	bhi.n	80007e4 <_malloc_r+0x58>
 800079c:	2910      	cmp	r1, #16
 800079e:	f200 80af 	bhi.w	8000900 <_malloc_r+0x174>
 80007a2:	f000 fbf5 	bl	8000f90 <__malloc_lock>
 80007a6:	2510      	movs	r5, #16
 80007a8:	2318      	movs	r3, #24
 80007aa:	2002      	movs	r0, #2
 80007ac:	4fc0      	ldr	r7, [pc, #768]	@ (8000ab0 <_malloc_r+0x324>)
 80007ae:	443b      	add	r3, r7
 80007b0:	f1a3 0208 	sub.w	r2, r3, #8
 80007b4:	685c      	ldr	r4, [r3, #4]
 80007b6:	4294      	cmp	r4, r2
 80007b8:	f000 8123 	beq.w	8000a02 <_malloc_r+0x276>
 80007bc:	6863      	ldr	r3, [r4, #4]
 80007be:	68e2      	ldr	r2, [r4, #12]
 80007c0:	68a1      	ldr	r1, [r4, #8]
 80007c2:	f023 0303 	bic.w	r3, r3, #3
 80007c6:	60ca      	str	r2, [r1, #12]
 80007c8:	4423      	add	r3, r4
 80007ca:	4630      	mov	r0, r6
 80007cc:	6091      	str	r1, [r2, #8]
 80007ce:	685a      	ldr	r2, [r3, #4]
 80007d0:	f042 0201 	orr.w	r2, r2, #1
 80007d4:	605a      	str	r2, [r3, #4]
 80007d6:	f000 fbdd 	bl	8000f94 <__malloc_unlock>
 80007da:	3408      	adds	r4, #8
 80007dc:	4620      	mov	r0, r4
 80007de:	b003      	add	sp, #12
 80007e0:	e8bd 8ff0 	ldmia.w	sp!, {r4, r5, r6, r7, r8, r9, sl, fp, pc}
 80007e4:	f035 0507 	bics.w	r5, r5, #7
 80007e8:	f100 808a 	bmi.w	8000900 <_malloc_r+0x174>
 80007ec:	42a9      	cmp	r1, r5
 80007ee:	f200 8087 	bhi.w	8000900 <_malloc_r+0x174>
 80007f2:	f000 fbcd 	bl	8000f90 <__malloc_lock>
 80007f6:	f5b5 7ffc 	cmp.w	r5, #504	@ 0x1f8
 80007fa:	f0c0 816b 	bcc.w	8000ad4 <_malloc_r+0x348>
 80007fe:	0a6b      	lsrs	r3, r5, #9
 8000800:	f000 8082 	beq.w	8000908 <_malloc_r+0x17c>
 8000804:	2b04      	cmp	r3, #4
 8000806:	f200 8122 	bhi.w	8000a4e <_malloc_r+0x2c2>
 800080a:	09ab      	lsrs	r3, r5, #6
 800080c:	f103 0039 	add.w	r0, r3, #57	@ 0x39
 8000810:	f103 0e38 	add.w	lr, r3, #56	@ 0x38
 8000814:	00c3      	lsls	r3, r0, #3
 8000816:	4fa6      	ldr	r7, [pc, #664]	@ (8000ab0 <_malloc_r+0x324>)
 8000818:	443b      	add	r3, r7
 800081a:	f1a3 0c08 	sub.w	ip, r3, #8
 800081e:	685c      	ldr	r4, [r3, #4]
 8000820:	45a4      	cmp	ip, r4
 8000822:	d107      	bne.n	8000834 <_malloc_r+0xa8>
 8000824:	e00d      	b.n	8000842 <_malloc_r+0xb6>
 8000826:	2a00      	cmp	r2, #0
 8000828:	68e1      	ldr	r1, [r4, #12]
 800082a:	f280 80e4 	bge.w	80009f6 <_malloc_r+0x26a>
 800082e:	458c      	cmp	ip, r1
 8000830:	d007      	beq.n	8000842 <_malloc_r+0xb6>
 8000832:	460c      	mov	r4, r1
 8000834:	6863      	ldr	r3, [r4, #4]
 8000836:	f023 0303 	bic.w	r3, r3, #3
 800083a:	1b5a      	subs	r2, r3, r5
 800083c:	2a0f      	cmp	r2, #15
 800083e:	ddf2      	ble.n	8000826 <_malloc_r+0x9a>
 8000840:	4670      	mov	r0, lr
 8000842:	f8df 8270 	ldr.w	r8, [pc, #624]	@ 8000ab4 <_malloc_r+0x328>
 8000846:	693c      	ldr	r4, [r7, #16]
 8000848:	4544      	cmp	r4, r8
 800084a:	f000 80c1 	beq.w	80009d0 <_malloc_r+0x244>
 800084e:	6863      	ldr	r3, [r4, #4]
 8000850:	f023 0c03 	bic.w	ip, r3, #3
 8000854:	ebac 0305 	sub.w	r3, ip, r5
 8000858:	2b0f      	cmp	r3, #15
 800085a:	f300 813f 	bgt.w	8000adc <_malloc_r+0x350>
 800085e:	2b00      	cmp	r3, #0
 8000860:	e9c7 8804 	strd	r8, r8, [r7, #16]
 8000864:	f280 812a 	bge.w	8000abc <_malloc_r+0x330>
 8000868:	f5bc 7f00 	cmp.w	ip, #512	@ 0x200
 800086c:	f8d7 e004 	ldr.w	lr, [r7, #4]
 8000870:	f080 80cd 	bcs.w	8000a0e <_malloc_r+0x282>
 8000874:	ea4f 01dc 	mov.w	r1, ip, lsr #3
 8000878:	3101      	adds	r1, #1
 800087a:	ea4f 1c5c 	mov.w	ip, ip, lsr #5
 800087e:	2301      	movs	r3, #1
 8000880:	fa03 f30c 	lsl.w	r3, r3, ip
 8000884:	f857 2031 	ldr.w	r2, [r7, r1, lsl #3]
 8000888:	60a2      	str	r2, [r4, #8]
 800088a:	ea4e 0e03 	orr.w	lr, lr, r3
 800088e:	eb07 03c1 	add.w	r3, r7, r1, lsl #3
 8000892:	3b08      	subs	r3, #8
 8000894:	60e3      	str	r3, [r4, #12]
 8000896:	f8c7 e004 	str.w	lr, [r7, #4]
 800089a:	f847 4031 	str.w	r4, [r7, r1, lsl #3]
 800089e:	60d4      	str	r4, [r2, #12]
 80008a0:	1083      	asrs	r3, r0, #2
 80008a2:	f04f 0c01 	mov.w	ip, #1
 80008a6:	fa0c fc03 	lsl.w	ip, ip, r3
 80008aa:	45f4      	cmp	ip, lr
 80008ac:	d832      	bhi.n	8000914 <_malloc_r+0x188>
 80008ae:	ea1c 0f0e 	tst.w	ip, lr
 80008b2:	d108      	bne.n	80008c6 <_malloc_r+0x13a>
 80008b4:	f020 0003 	bic.w	r0, r0, #3
 80008b8:	ea4f 0c4c 	mov.w	ip, ip, lsl #1
 80008bc:	ea1c 0f0e 	tst.w	ip, lr
 80008c0:	f100 0004 	add.w	r0, r0, #4
 80008c4:	d0f8      	beq.n	80008b8 <_malloc_r+0x12c>
 80008c6:	eb07 0ac0 	add.w	sl, r7, r0, lsl #3
 80008ca:	46d6      	mov	lr, sl
 80008cc:	4681      	mov	r9, r0
 80008ce:	f8de 300c 	ldr.w	r3, [lr, #12]
 80008d2:	e00b      	b.n	80008ec <_malloc_r+0x160>
 80008d4:	6859      	ldr	r1, [r3, #4]
 80008d6:	f021 0103 	bic.w	r1, r1, #3
 80008da:	1b4a      	subs	r2, r1, r5
 80008dc:	2a0f      	cmp	r2, #15
 80008de:	461c      	mov	r4, r3
 80008e0:	68db      	ldr	r3, [r3, #12]
 80008e2:	f300 80c0 	bgt.w	8000a66 <_malloc_r+0x2da>
 80008e6:	2a00      	cmp	r2, #0
 80008e8:	f280 80d4 	bge.w	8000a94 <_malloc_r+0x308>
 80008ec:	459e      	cmp	lr, r3
 80008ee:	d1f1      	bne.n	80008d4 <_malloc_r+0x148>
 80008f0:	f109 0901 	add.w	r9, r9, #1
 80008f4:	f019 0f03 	tst.w	r9, #3
 80008f8:	f10e 0e08 	add.w	lr, lr, #8
 80008fc:	d1e7      	bne.n	80008ce <_malloc_r+0x142>
 80008fe:	e116      	b.n	8000b2e <_malloc_r+0x3a2>
 8000900:	230c      	movs	r3, #12
 8000902:	6033      	str	r3, [r6, #0]
 8000904:	2400      	movs	r4, #0
 8000906:	e769      	b.n	80007dc <_malloc_r+0x50>
 8000908:	f44f 7300 	mov.w	r3, #512	@ 0x200
 800090c:	2040      	movs	r0, #64	@ 0x40
 800090e:	f04f 0e3f 	mov.w	lr, #63	@ 0x3f
 8000912:	e780      	b.n	8000816 <_malloc_r+0x8a>
 8000914:	68bc      	ldr	r4, [r7, #8]
 8000916:	6863      	ldr	r3, [r4, #4]
 8000918:	f023 0903 	bic.w	r9, r3, #3
 800091c:	45a9      	cmp	r9, r5
 800091e:	d303      	bcc.n	8000928 <_malloc_r+0x19c>
 8000920:	eba9 0305 	sub.w	r3, r9, r5
 8000924:	2b0f      	cmp	r3, #15
 8000926:	dc56      	bgt.n	80009d6 <_malloc_r+0x24a>
 8000928:	f8df b18c 	ldr.w	fp, [pc, #396]	@ 8000ab8 <_malloc_r+0x32c>
 800092c:	f8db 2000 	ldr.w	r2, [fp]
 8000930:	eb04 0309 	add.w	r3, r4, r9
 8000934:	3210      	adds	r2, #16
 8000936:	2008      	movs	r0, #8
 8000938:	eb02 0805 	add.w	r8, r2, r5
 800093c:	9300      	str	r3, [sp, #0]
 800093e:	f000 ff47 	bl	80017d0 <sysconf>
 8000942:	f8d7 1408 	ldr.w	r1, [r7, #1032]	@ 0x408
 8000946:	3101      	adds	r1, #1
 8000948:	4602      	mov	r2, r0
 800094a:	d005      	beq.n	8000958 <_malloc_r+0x1cc>
 800094c:	f108 38ff 	add.w	r8, r8, #4294967295	@ 0xffffffff
 8000950:	4480      	add	r8, r0
 8000952:	4241      	negs	r1, r0
 8000954:	ea01 0808 	and.w	r8, r1, r8
 8000958:	4641      	mov	r1, r8
 800095a:	4630      	mov	r0, r6
 800095c:	9201      	str	r2, [sp, #4]
 800095e:	f000 fb1b 	bl	8000f98 <_sbrk_r>
 8000962:	f1b0 3fff 	cmp.w	r0, #4294967295	@ 0xffffffff
 8000966:	9a01      	ldr	r2, [sp, #4]
 8000968:	4682      	mov	sl, r0
 800096a:	f000 80d2 	beq.w	8000b12 <_malloc_r+0x386>
 800096e:	9b00      	ldr	r3, [sp, #0]
 8000970:	4283      	cmp	r3, r0
 8000972:	f200 80cc 	bhi.w	8000b0e <_malloc_r+0x382>
 8000976:	f8db 1004 	ldr.w	r1, [fp, #4]
 800097a:	4441      	add	r1, r8
 800097c:	f8cb 1004 	str.w	r1, [fp, #4]
 8000980:	f102 3cff 	add.w	ip, r2, #4294967295	@ 0xffffffff
 8000984:	f040 80f5 	bne.w	8000b72 <_malloc_r+0x3e6>
 8000988:	ea10 0f0c 	tst.w	r0, ip
 800098c:	f040 80f1 	bne.w	8000b72 <_malloc_r+0x3e6>
 8000990:	f8d7 a008 	ldr.w	sl, [r7, #8]
 8000994:	44c8      	add	r8, r9
 8000996:	f048 0001 	orr.w	r0, r8, #1
 800099a:	f8ca 0004 	str.w	r0, [sl, #4]
 800099e:	f8db 202c 	ldr.w	r2, [fp, #44]	@ 0x2c
 80009a2:	428a      	cmp	r2, r1
 80009a4:	f8db 2030 	ldr.w	r2, [fp, #48]	@ 0x30
 80009a8:	bf38      	it	cc
 80009aa:	f8cb 102c 	strcc.w	r1, [fp, #44]	@ 0x2c
 80009ae:	428a      	cmp	r2, r1
 80009b0:	bf38      	it	cc
 80009b2:	f8cb 1030 	strcc.w	r1, [fp, #48]	@ 0x30
 80009b6:	4654      	mov	r4, sl
 80009b8:	f020 0803 	bic.w	r8, r0, #3
 80009bc:	45a8      	cmp	r8, r5
 80009be:	eba8 0305 	sub.w	r3, r8, r5
 80009c2:	d301      	bcc.n	80009c8 <_malloc_r+0x23c>
 80009c4:	2b0f      	cmp	r3, #15
 80009c6:	dc06      	bgt.n	80009d6 <_malloc_r+0x24a>
 80009c8:	4630      	mov	r0, r6
 80009ca:	f000 fae3 	bl	8000f94 <__malloc_unlock>
 80009ce:	e799      	b.n	8000904 <_malloc_r+0x178>
 80009d0:	f8d7 e004 	ldr.w	lr, [r7, #4]
 80009d4:	e764      	b.n	80008a0 <_malloc_r+0x114>
 80009d6:	1962      	adds	r2, r4, r5
 80009d8:	f043 0301 	orr.w	r3, r3, #1
 80009dc:	f045 0501 	orr.w	r5, r5, #1
 80009e0:	6065      	str	r5, [r4, #4]
 80009e2:	4630      	mov	r0, r6
 80009e4:	60ba      	str	r2, [r7, #8]
 80009e6:	6053      	str	r3, [r2, #4]
 80009e8:	f000 fad4 	bl	8000f94 <__malloc_unlock>
 80009ec:	3408      	adds	r4, #8
 80009ee:	4620      	mov	r0, r4
 80009f0:	b003      	add	sp, #12
 80009f2:	e8bd 8ff0 	ldmia.w	sp!, {r4, r5, r6, r7, r8, r9, sl, fp, pc}
 80009f6:	68a2      	ldr	r2, [r4, #8]
 80009f8:	4423      	add	r3, r4
 80009fa:	60d1      	str	r1, [r2, #12]
 80009fc:	4630      	mov	r0, r6
 80009fe:	608a      	str	r2, [r1, #8]
 8000a00:	e6e5      	b.n	80007ce <_malloc_r+0x42>
 8000a02:	68dc      	ldr	r4, [r3, #12]
 8000a04:	42a3      	cmp	r3, r4
 8000a06:	f47f aed9 	bne.w	80007bc <_malloc_r+0x30>
 8000a0a:	3002      	adds	r0, #2
 8000a0c:	e719      	b.n	8000842 <_malloc_r+0xb6>
 8000a0e:	f5bc 6f20 	cmp.w	ip, #2560	@ 0xa00
 8000a12:	ea4f 225c 	mov.w	r2, ip, lsr #9
 8000a16:	d373      	bcc.n	8000b00 <_malloc_r+0x374>
 8000a18:	2a14      	cmp	r2, #20
 8000a1a:	f200 8109 	bhi.w	8000c30 <_malloc_r+0x4a4>
 8000a1e:	f102 035c 	add.w	r3, r2, #92	@ 0x5c
 8000a22:	00db      	lsls	r3, r3, #3
 8000a24:	325b      	adds	r2, #91	@ 0x5b
 8000a26:	18f9      	adds	r1, r7, r3
 8000a28:	58fb      	ldr	r3, [r7, r3]
 8000a2a:	3908      	subs	r1, #8
 8000a2c:	4299      	cmp	r1, r3
 8000a2e:	d103      	bne.n	8000a38 <_malloc_r+0x2ac>
 8000a30:	e0e5      	b.n	8000bfe <_malloc_r+0x472>
 8000a32:	689b      	ldr	r3, [r3, #8]
 8000a34:	4299      	cmp	r1, r3
 8000a36:	d004      	beq.n	8000a42 <_malloc_r+0x2b6>
 8000a38:	685a      	ldr	r2, [r3, #4]
 8000a3a:	f022 0203 	bic.w	r2, r2, #3
 8000a3e:	4562      	cmp	r2, ip
 8000a40:	d8f7      	bhi.n	8000a32 <_malloc_r+0x2a6>
 8000a42:	68d9      	ldr	r1, [r3, #12]
 8000a44:	e9c4 3102 	strd	r3, r1, [r4, #8]
 8000a48:	608c      	str	r4, [r1, #8]
 8000a4a:	60dc      	str	r4, [r3, #12]
 8000a4c:	e728      	b.n	80008a0 <_malloc_r+0x114>
 8000a4e:	2b14      	cmp	r3, #20
 8000a50:	d962      	bls.n	8000b18 <_malloc_r+0x38c>
 8000a52:	2b54      	cmp	r3, #84	@ 0x54
 8000a54:	f200 80f5 	bhi.w	8000c42 <_malloc_r+0x4b6>
 8000a58:	0b2b      	lsrs	r3, r5, #12
 8000a5a:	f103 006f 	add.w	r0, r3, #111	@ 0x6f
 8000a5e:	f103 0e6e 	add.w	lr, r3, #110	@ 0x6e
 8000a62:	00c3      	lsls	r3, r0, #3
 8000a64:	e6d7      	b.n	8000816 <_malloc_r+0x8a>
 8000a66:	f8d4 c008 	ldr.w	ip, [r4, #8]
 8000a6a:	4630      	mov	r0, r6
 8000a6c:	1966      	adds	r6, r4, r5
 8000a6e:	f045 0501 	orr.w	r5, r5, #1
 8000a72:	6065      	str	r5, [r4, #4]
 8000a74:	f8cc 300c 	str.w	r3, [ip, #12]
 8000a78:	f8c3 c008 	str.w	ip, [r3, #8]
 8000a7c:	f042 0301 	orr.w	r3, r2, #1
 8000a80:	e9c7 6604 	strd	r6, r6, [r7, #16]
 8000a84:	e9c6 8802 	strd	r8, r8, [r6, #8]
 8000a88:	6073      	str	r3, [r6, #4]
 8000a8a:	5062      	str	r2, [r4, r1]
 8000a8c:	f000 fa82 	bl	8000f94 <__malloc_unlock>
 8000a90:	3408      	adds	r4, #8
 8000a92:	e6a3      	b.n	80007dc <_malloc_r+0x50>
 8000a94:	4421      	add	r1, r4
 8000a96:	4630      	mov	r0, r6
 8000a98:	684a      	ldr	r2, [r1, #4]
 8000a9a:	f042 0201 	orr.w	r2, r2, #1
 8000a9e:	604a      	str	r2, [r1, #4]
 8000aa0:	f854 2f08 	ldr.w	r2, [r4, #8]!
 8000aa4:	60d3      	str	r3, [r2, #12]
 8000aa6:	609a      	str	r2, [r3, #8]
 8000aa8:	f000 fa74 	bl	8000f94 <__malloc_unlock>
 8000aac:	e696      	b.n	80007dc <_malloc_r+0x50>
 8000aae:	bf00      	nop
 8000ab0:	20000010 			@ <UNDEFINED> instruction: 20000010
 8000ab4:	20000018 			@ <UNDEFINED> instruction: 20000018
 8000ab8:	200006c4 			@ <UNDEFINED> instruction: 200006c4
 8000abc:	44a4      	add	ip, r4
 8000abe:	4630      	mov	r0, r6
 8000ac0:	f8dc 3004 	ldr.w	r3, [ip, #4]
 8000ac4:	f043 0301 	orr.w	r3, r3, #1
 8000ac8:	f8cc 3004 	str.w	r3, [ip, #4]
 8000acc:	f000 fa62 	bl	8000f94 <__malloc_unlock>
 8000ad0:	3408      	adds	r4, #8
 8000ad2:	e683      	b.n	80007dc <_malloc_r+0x50>
 8000ad4:	08e8      	lsrs	r0, r5, #3
 8000ad6:	f105 0308 	add.w	r3, r5, #8
 8000ada:	e667      	b.n	80007ac <_malloc_r+0x20>
 8000adc:	1962      	adds	r2, r4, r5
 8000ade:	f043 0101 	orr.w	r1, r3, #1
 8000ae2:	f045 0501 	orr.w	r5, r5, #1
 8000ae6:	6065      	str	r5, [r4, #4]
 8000ae8:	4630      	mov	r0, r6
 8000aea:	e9c7 2204 	strd	r2, r2, [r7, #16]
 8000aee:	e9c2 8802 	strd	r8, r8, [r2, #8]
 8000af2:	6051      	str	r1, [r2, #4]
 8000af4:	f844 300c 	str.w	r3, [r4, ip]
 8000af8:	f000 fa4c 	bl	8000f94 <__malloc_unlock>
 8000afc:	3408      	adds	r4, #8
 8000afe:	e66d      	b.n	80007dc <_malloc_r+0x50>
 8000b00:	ea4f 129c 	mov.w	r2, ip, lsr #6
 8000b04:	f102 0339 	add.w	r3, r2, #57	@ 0x39
 8000b08:	00db      	lsls	r3, r3, #3
 8000b0a:	3238      	adds	r2, #56	@ 0x38
 8000b0c:	e78b      	b.n	8000a26 <_malloc_r+0x29a>
 8000b0e:	42bc      	cmp	r4, r7
 8000b10:	d028      	beq.n	8000b64 <_malloc_r+0x3d8>
 8000b12:	68bc      	ldr	r4, [r7, #8]
 8000b14:	6860      	ldr	r0, [r4, #4]
 8000b16:	e74f      	b.n	80009b8 <_malloc_r+0x22c>
 8000b18:	f103 005c 	add.w	r0, r3, #92	@ 0x5c
 8000b1c:	f103 0e5b 	add.w	lr, r3, #91	@ 0x5b
 8000b20:	00c3      	lsls	r3, r0, #3
 8000b22:	e678      	b.n	8000816 <_malloc_r+0x8a>
 8000b24:	f85a 3908 	ldr.w	r3, [sl], #-8
 8000b28:	4553      	cmp	r3, sl
 8000b2a:	f040 80d7 	bne.w	8000cdc <_malloc_r+0x550>
 8000b2e:	f010 0f03 	tst.w	r0, #3
 8000b32:	f100 30ff 	add.w	r0, r0, #4294967295	@ 0xffffffff
 8000b36:	d1f5      	bne.n	8000b24 <_malloc_r+0x398>
 8000b38:	687b      	ldr	r3, [r7, #4]
 8000b3a:	ea23 030c 	bic.w	r3, r3, ip
 8000b3e:	607b      	str	r3, [r7, #4]
 8000b40:	ea4f 0c4c 	mov.w	ip, ip, lsl #1
 8000b44:	459c      	cmp	ip, r3
 8000b46:	f63f aee5 	bhi.w	8000914 <_malloc_r+0x188>
 8000b4a:	f1bc 0f00 	cmp.w	ip, #0
 8000b4e:	d104      	bne.n	8000b5a <_malloc_r+0x3ce>
 8000b50:	e6e0      	b.n	8000914 <_malloc_r+0x188>
 8000b52:	ea4f 0c4c 	mov.w	ip, ip, lsl #1
 8000b56:	f109 0904 	add.w	r9, r9, #4
 8000b5a:	ea1c 0f03 	tst.w	ip, r3
 8000b5e:	d0f8      	beq.n	8000b52 <_malloc_r+0x3c6>
 8000b60:	4648      	mov	r0, r9
 8000b62:	e6b0      	b.n	80008c6 <_malloc_r+0x13a>
 8000b64:	f8db 1004 	ldr.w	r1, [fp, #4]
 8000b68:	4441      	add	r1, r8
 8000b6a:	f8cb 1004 	str.w	r1, [fp, #4]
 8000b6e:	f102 3cff 	add.w	ip, r2, #4294967295	@ 0xffffffff
 8000b72:	f8d7 0408 	ldr.w	r0, [r7, #1032]	@ 0x408
 8000b76:	3001      	adds	r0, #1
 8000b78:	d06d      	beq.n	8000c56 <_malloc_r+0x4ca>
 8000b7a:	9b00      	ldr	r3, [sp, #0]
 8000b7c:	ebaa 0303 	sub.w	r3, sl, r3
 8000b80:	4419      	add	r1, r3
 8000b82:	f8cb 1004 	str.w	r1, [fp, #4]
 8000b86:	f01a 0307 	ands.w	r3, sl, #7
 8000b8a:	9300      	str	r3, [sp, #0]
 8000b8c:	d041      	beq.n	8000c12 <_malloc_r+0x486>
 8000b8e:	f1c3 0108 	rsb	r1, r3, #8
 8000b92:	448a      	add	sl, r1
 8000b94:	44d0      	add	r8, sl
 8000b96:	440a      	add	r2, r1
 8000b98:	ea08 010c 	and.w	r1, r8, ip
 8000b9c:	1a52      	subs	r2, r2, r1
 8000b9e:	ea02 010c 	and.w	r1, r2, ip
 8000ba2:	4630      	mov	r0, r6
 8000ba4:	9101      	str	r1, [sp, #4]
 8000ba6:	f000 f9f7 	bl	8000f98 <_sbrk_r>
 8000baa:	1c42      	adds	r2, r0, #1
 8000bac:	d06f      	beq.n	8000c8e <_malloc_r+0x502>
 8000bae:	9901      	ldr	r1, [sp, #4]
 8000bb0:	eba0 000a 	sub.w	r0, r0, sl
 8000bb4:	eb00 0801 	add.w	r8, r0, r1
 8000bb8:	f8db 2004 	ldr.w	r2, [fp, #4]
 8000bbc:	f8c7 a008 	str.w	sl, [r7, #8]
 8000bc0:	f048 0001 	orr.w	r0, r8, #1
 8000bc4:	4411      	add	r1, r2
 8000bc6:	42bc      	cmp	r4, r7
 8000bc8:	f8ca 0004 	str.w	r0, [sl, #4]
 8000bcc:	f8cb 1004 	str.w	r1, [fp, #4]
 8000bd0:	f43f aee5 	beq.w	800099e <_malloc_r+0x212>
 8000bd4:	f1b9 0f0f 	cmp.w	r9, #15
 8000bd8:	d940      	bls.n	8000c5c <_malloc_r+0x4d0>
 8000bda:	6862      	ldr	r2, [r4, #4]
 8000bdc:	f1a9 000c 	sub.w	r0, r9, #12
 8000be0:	f020 0007 	bic.w	r0, r0, #7
 8000be4:	f002 0201 	and.w	r2, r2, #1
 8000be8:	4302      	orrs	r2, r0
 8000bea:	6062      	str	r2, [r4, #4]
 8000bec:	2305      	movs	r3, #5
 8000bee:	1822      	adds	r2, r4, r0
 8000bf0:	280f      	cmp	r0, #15
 8000bf2:	e9c2 3301 	strd	r3, r3, [r2, #4]
 8000bf6:	d852      	bhi.n	8000c9e <_malloc_r+0x512>
 8000bf8:	f8da 0004 	ldr.w	r0, [sl, #4]
 8000bfc:	e6cf      	b.n	800099e <_malloc_r+0x212>
 8000bfe:	1092      	asrs	r2, r2, #2
 8000c00:	f04f 0c01 	mov.w	ip, #1
 8000c04:	fa0c f202 	lsl.w	r2, ip, r2
 8000c08:	ea4e 0e02 	orr.w	lr, lr, r2
 8000c0c:	f8c7 e004 	str.w	lr, [r7, #4]
 8000c10:	e718      	b.n	8000a44 <_malloc_r+0x2b8>
 8000c12:	eb0a 0108 	add.w	r1, sl, r8
 8000c16:	ea01 010c 	and.w	r1, r1, ip
 8000c1a:	1a52      	subs	r2, r2, r1
 8000c1c:	ea02 010c 	and.w	r1, r2, ip
 8000c20:	4630      	mov	r0, r6
 8000c22:	9101      	str	r1, [sp, #4]
 8000c24:	f000 f9b8 	bl	8000f98 <_sbrk_r>
 8000c28:	1c43      	adds	r3, r0, #1
 8000c2a:	d1c0      	bne.n	8000bae <_malloc_r+0x422>
 8000c2c:	9900      	ldr	r1, [sp, #0]
 8000c2e:	e7c3      	b.n	8000bb8 <_malloc_r+0x42c>
 8000c30:	2a54      	cmp	r2, #84	@ 0x54
 8000c32:	d817      	bhi.n	8000c64 <_malloc_r+0x4d8>
 8000c34:	ea4f 321c 	mov.w	r2, ip, lsr #12
 8000c38:	f102 036f 	add.w	r3, r2, #111	@ 0x6f
 8000c3c:	00db      	lsls	r3, r3, #3
 8000c3e:	326e      	adds	r2, #110	@ 0x6e
 8000c40:	e6f1      	b.n	8000a26 <_malloc_r+0x29a>
 8000c42:	f5b3 7faa 	cmp.w	r3, #340	@ 0x154
 8000c46:	d817      	bhi.n	8000c78 <_malloc_r+0x4ec>
 8000c48:	0beb      	lsrs	r3, r5, #15
 8000c4a:	f103 0078 	add.w	r0, r3, #120	@ 0x78
 8000c4e:	f103 0e77 	add.w	lr, r3, #119	@ 0x77
 8000c52:	00c3      	lsls	r3, r0, #3
 8000c54:	e5df      	b.n	8000816 <_malloc_r+0x8a>
 8000c56:	f8c7 a408 	str.w	sl, [r7, #1032]	@ 0x408
 8000c5a:	e794      	b.n	8000b86 <_malloc_r+0x3fa>
 8000c5c:	2301      	movs	r3, #1
 8000c5e:	f8ca 3004 	str.w	r3, [sl, #4]
 8000c62:	e6b1      	b.n	80009c8 <_malloc_r+0x23c>
 8000c64:	f5b2 7faa 	cmp.w	r2, #340	@ 0x154
 8000c68:	d823      	bhi.n	8000cb2 <_malloc_r+0x526>
 8000c6a:	ea4f 32dc 	mov.w	r2, ip, lsr #15
 8000c6e:	f102 0378 	add.w	r3, r2, #120	@ 0x78
 8000c72:	00db      	lsls	r3, r3, #3
 8000c74:	3277      	adds	r2, #119	@ 0x77
 8000c76:	e6d6      	b.n	8000a26 <_malloc_r+0x29a>
 8000c78:	f240 5254 	movw	r2, #1364	@ 0x554
 8000c7c:	4293      	cmp	r3, r2
 8000c7e:	d823      	bhi.n	8000cc8 <_malloc_r+0x53c>
 8000c80:	0cab      	lsrs	r3, r5, #18
 8000c82:	f103 007d 	add.w	r0, r3, #125	@ 0x7d
 8000c86:	f103 0e7c 	add.w	lr, r3, #124	@ 0x7c
 8000c8a:	00c3      	lsls	r3, r0, #3
 8000c8c:	e5c3      	b.n	8000816 <_malloc_r+0x8a>
 8000c8e:	9b00      	ldr	r3, [sp, #0]
 8000c90:	f1a3 0208 	sub.w	r2, r3, #8
 8000c94:	4490      	add	r8, r2
 8000c96:	eba8 080a 	sub.w	r8, r8, sl
 8000c9a:	2100      	movs	r1, #0
 8000c9c:	e78c      	b.n	8000bb8 <_malloc_r+0x42c>
 8000c9e:	f104 0108 	add.w	r1, r4, #8
 8000ca2:	4630      	mov	r0, r6
 8000ca4:	f000 f878 	bl	8000d98 <_free_r>
 8000ca8:	f8db 1004 	ldr.w	r1, [fp, #4]
 8000cac:	f8d7 a008 	ldr.w	sl, [r7, #8]
 8000cb0:	e7a2      	b.n	8000bf8 <_malloc_r+0x46c>
 8000cb2:	f240 5354 	movw	r3, #1364	@ 0x554
 8000cb6:	429a      	cmp	r2, r3
 8000cb8:	d80c      	bhi.n	8000cd4 <_malloc_r+0x548>
 8000cba:	ea4f 429c 	mov.w	r2, ip, lsr #18
 8000cbe:	f102 037d 	add.w	r3, r2, #125	@ 0x7d
 8000cc2:	00db      	lsls	r3, r3, #3
 8000cc4:	327c      	adds	r2, #124	@ 0x7c
 8000cc6:	e6ae      	b.n	8000a26 <_malloc_r+0x29a>
 8000cc8:	f44f 737e 	mov.w	r3, #1016	@ 0x3f8
 8000ccc:	207f      	movs	r0, #127	@ 0x7f
 8000cce:	f04f 0e7e 	mov.w	lr, #126	@ 0x7e
 8000cd2:	e5a0      	b.n	8000816 <_malloc_r+0x8a>
 8000cd4:	f44f 737e 	mov.w	r3, #1016	@ 0x3f8
 8000cd8:	227e      	movs	r2, #126	@ 0x7e
 8000cda:	e6a4      	b.n	8000a26 <_malloc_r+0x29a>
 8000cdc:	687b      	ldr	r3, [r7, #4]
 8000cde:	e72f      	b.n	8000b40 <_malloc_r+0x3b4>

08000ce0 <_malloc_trim_r>:
 8000ce0:	e92d 43f8 	stmdb	sp!, {r3, r4, r5, r6, r7, r8, r9, lr}
 8000ce4:	4606      	mov	r6, r0
 8000ce6:	2008      	movs	r0, #8
 8000ce8:	4689      	mov	r9, r1
 8000cea:	f000 fd71 	bl	80017d0 <sysconf>
 8000cee:	f8df 80a4 	ldr.w	r8, [pc, #164]	@ 8000d94 <_malloc_trim_r+0xb4>
 8000cf2:	4605      	mov	r5, r0
 8000cf4:	4630      	mov	r0, r6
 8000cf6:	f000 f94b 	bl	8000f90 <__malloc_lock>
 8000cfa:	f8d8 3008 	ldr.w	r3, [r8, #8]
 8000cfe:	685f      	ldr	r7, [r3, #4]
 8000d00:	f027 0703 	bic.w	r7, r7, #3
 8000d04:	f1a7 0411 	sub.w	r4, r7, #17
 8000d08:	eba4 0409 	sub.w	r4, r4, r9
 8000d0c:	442c      	add	r4, r5
 8000d0e:	fbb4 f4f5 	udiv	r4, r4, r5
 8000d12:	3c01      	subs	r4, #1
 8000d14:	fb05 f404 	mul.w	r4, r5, r4
 8000d18:	42a5      	cmp	r5, r4
 8000d1a:	dc08      	bgt.n	8000d2e <_malloc_trim_r+0x4e>
 8000d1c:	2100      	movs	r1, #0
 8000d1e:	4630      	mov	r0, r6
 8000d20:	f000 f93a 	bl	8000f98 <_sbrk_r>
 8000d24:	f8d8 3008 	ldr.w	r3, [r8, #8]
 8000d28:	443b      	add	r3, r7
 8000d2a:	4298      	cmp	r0, r3
 8000d2c:	d005      	beq.n	8000d3a <_malloc_trim_r+0x5a>
 8000d2e:	4630      	mov	r0, r6
 8000d30:	f000 f930 	bl	8000f94 <__malloc_unlock>
 8000d34:	2000      	movs	r0, #0
 8000d36:	e8bd 83f8 	ldmia.w	sp!, {r3, r4, r5, r6, r7, r8, r9, pc}
 8000d3a:	4261      	negs	r1, r4
 8000d3c:	4630      	mov	r0, r6
 8000d3e:	f000 f92b 	bl	8000f98 <_sbrk_r>
 8000d42:	3001      	adds	r0, #1
 8000d44:	d00f      	beq.n	8000d66 <_malloc_trim_r+0x86>
 8000d46:	4a11      	ldr	r2, [pc, #68]	@ (8000d8c <_malloc_trim_r+0xac>)
 8000d48:	f8d8 3008 	ldr.w	r3, [r8, #8]
 8000d4c:	1b3f      	subs	r7, r7, r4
 8000d4e:	f047 0701 	orr.w	r7, r7, #1
 8000d52:	605f      	str	r7, [r3, #4]
 8000d54:	6813      	ldr	r3, [r2, #0]
 8000d56:	4630      	mov	r0, r6
 8000d58:	1b1b      	subs	r3, r3, r4
 8000d5a:	6013      	str	r3, [r2, #0]
 8000d5c:	f000 f91a 	bl	8000f94 <__malloc_unlock>
 8000d60:	2001      	movs	r0, #1
 8000d62:	e8bd 83f8 	ldmia.w	sp!, {r3, r4, r5, r6, r7, r8, r9, pc}
 8000d66:	2100      	movs	r1, #0
 8000d68:	4630      	mov	r0, r6
 8000d6a:	f000 f915 	bl	8000f98 <_sbrk_r>
 8000d6e:	f8d8 2008 	ldr.w	r2, [r8, #8]
 8000d72:	1a83      	subs	r3, r0, r2
 8000d74:	2b0f      	cmp	r3, #15
 8000d76:	ddda      	ble.n	8000d2e <_malloc_trim_r+0x4e>
 8000d78:	f043 0301 	orr.w	r3, r3, #1
 8000d7c:	6053      	str	r3, [r2, #4]
 8000d7e:	4b04      	ldr	r3, [pc, #16]	@ (8000d90 <_malloc_trim_r+0xb0>)
 8000d80:	4902      	ldr	r1, [pc, #8]	@ (8000d8c <_malloc_trim_r+0xac>)
 8000d82:	681b      	ldr	r3, [r3, #0]
 8000d84:	1ac0      	subs	r0, r0, r3
 8000d86:	6008      	str	r0, [r1, #0]
 8000d88:	e7d1      	b.n	8000d2e <_malloc_trim_r+0x4e>
 8000d8a:	bf00      	nop
 8000d8c:	200006c8 			@ <UNDEFINED> instruction: 200006c8
 8000d90:	20000418 			@ <UNDEFINED> instruction: 20000418
 8000d94:	20000010 			@ <UNDEFINED> instruction: 20000010

08000d98 <_free_r>:
 8000d98:	2900      	cmp	r1, #0
 8000d9a:	d07c      	beq.n	8000e96 <_free_r+0xfe>
 8000d9c:	e92d 41f0 	stmdb	sp!, {r4, r5, r6, r7, r8, lr}
 8000da0:	460c      	mov	r4, r1
 8000da2:	4680      	mov	r8, r0
 8000da4:	f000 f8f4 	bl	8000f90 <__malloc_lock>
 8000da8:	f854 3c04 	ldr.w	r3, [r4, #-4]
 8000dac:	4f75      	ldr	r7, [pc, #468]	@ (8000f84 <_free_r+0x1ec>)
 8000dae:	f1a4 0508 	sub.w	r5, r4, #8
 8000db2:	f023 0101 	bic.w	r1, r3, #1
 8000db6:	1868      	adds	r0, r5, r1
 8000db8:	68be      	ldr	r6, [r7, #8]
 8000dba:	6842      	ldr	r2, [r0, #4]
 8000dbc:	4286      	cmp	r6, r0
 8000dbe:	f022 0203 	bic.w	r2, r2, #3
 8000dc2:	f000 8083 	beq.w	8000ecc <_free_r+0x134>
 8000dc6:	07de      	lsls	r6, r3, #31
 8000dc8:	6042      	str	r2, [r0, #4]
 8000dca:	eb00 0c02 	add.w	ip, r0, r2
 8000dce:	d433      	bmi.n	8000e38 <_free_r+0xa0>
 8000dd0:	f854 4c08 	ldr.w	r4, [r4, #-8]
 8000dd4:	f8dc 3004 	ldr.w	r3, [ip, #4]
 8000dd8:	1b2d      	subs	r5, r5, r4
 8000dda:	4421      	add	r1, r4
 8000ddc:	68ac      	ldr	r4, [r5, #8]
 8000dde:	f107 0c08 	add.w	ip, r7, #8
 8000de2:	4564      	cmp	r4, ip
 8000de4:	f003 0301 	and.w	r3, r3, #1
 8000de8:	d064      	beq.n	8000eb4 <_free_r+0x11c>
 8000dea:	f8d5 e00c 	ldr.w	lr, [r5, #12]
 8000dee:	f8c4 e00c 	str.w	lr, [r4, #12]
 8000df2:	f8ce 4008 	str.w	r4, [lr, #8]
 8000df6:	2b00      	cmp	r3, #0
 8000df8:	f000 8081 	beq.w	8000efe <_free_r+0x166>
 8000dfc:	f041 0301 	orr.w	r3, r1, #1
 8000e00:	606b      	str	r3, [r5, #4]
 8000e02:	6001      	str	r1, [r0, #0]
 8000e04:	f5b1 7f00 	cmp.w	r1, #512	@ 0x200
 8000e08:	d222      	bcs.n	8000e50 <_free_r+0xb8>
 8000e0a:	6878      	ldr	r0, [r7, #4]
 8000e0c:	08cb      	lsrs	r3, r1, #3
 8000e0e:	2201      	movs	r2, #1
 8000e10:	0949      	lsrs	r1, r1, #5
 8000e12:	3301      	adds	r3, #1
 8000e14:	408a      	lsls	r2, r1
 8000e16:	4302      	orrs	r2, r0
 8000e18:	f857 1033 	ldr.w	r1, [r7, r3, lsl #3]
 8000e1c:	607a      	str	r2, [r7, #4]
 8000e1e:	eb07 02c3 	add.w	r2, r7, r3, lsl #3
 8000e22:	3a08      	subs	r2, #8
 8000e24:	e9c5 1202 	strd	r1, r2, [r5, #8]
 8000e28:	f847 5033 	str.w	r5, [r7, r3, lsl #3]
 8000e2c:	60cd      	str	r5, [r1, #12]
 8000e2e:	4640      	mov	r0, r8
 8000e30:	e8bd 41f0 	ldmia.w	sp!, {r4, r5, r6, r7, r8, lr}
 8000e34:	f000 b8ae 	b.w	8000f94 <__malloc_unlock>
 8000e38:	f8dc 3004 	ldr.w	r3, [ip, #4]
 8000e3c:	07db      	lsls	r3, r3, #31
 8000e3e:	d52b      	bpl.n	8000e98 <_free_r+0x100>
 8000e40:	f041 0301 	orr.w	r3, r1, #1
 8000e44:	f5b1 7f00 	cmp.w	r1, #512	@ 0x200
 8000e48:	f844 3c04 	str.w	r3, [r4, #-4]
 8000e4c:	6001      	str	r1, [r0, #0]
 8000e4e:	d3dc      	bcc.n	8000e0a <_free_r+0x72>
 8000e50:	f5b1 6f20 	cmp.w	r1, #2560	@ 0xa00
 8000e54:	ea4f 2351 	mov.w	r3, r1, lsr #9
 8000e58:	d253      	bcs.n	8000f02 <_free_r+0x16a>
 8000e5a:	098b      	lsrs	r3, r1, #6
 8000e5c:	f103 0039 	add.w	r0, r3, #57	@ 0x39
 8000e60:	f103 0238 	add.w	r2, r3, #56	@ 0x38
 8000e64:	00c3      	lsls	r3, r0, #3
 8000e66:	18f8      	adds	r0, r7, r3
 8000e68:	58fb      	ldr	r3, [r7, r3]
 8000e6a:	3808      	subs	r0, #8
 8000e6c:	4298      	cmp	r0, r3
 8000e6e:	d103      	bne.n	8000e78 <_free_r+0xe0>
 8000e70:	e061      	b.n	8000f36 <_free_r+0x19e>
 8000e72:	689b      	ldr	r3, [r3, #8]
 8000e74:	4298      	cmp	r0, r3
 8000e76:	d004      	beq.n	8000e82 <_free_r+0xea>
 8000e78:	685a      	ldr	r2, [r3, #4]
 8000e7a:	f022 0203 	bic.w	r2, r2, #3
 8000e7e:	428a      	cmp	r2, r1
 8000e80:	d8f7      	bhi.n	8000e72 <_free_r+0xda>
 8000e82:	68d8      	ldr	r0, [r3, #12]
 8000e84:	e9c5 3002 	strd	r3, r0, [r5, #8]
 8000e88:	6085      	str	r5, [r0, #8]
 8000e8a:	60dd      	str	r5, [r3, #12]
 8000e8c:	4640      	mov	r0, r8
 8000e8e:	e8bd 41f0 	ldmia.w	sp!, {r4, r5, r6, r7, r8, lr}
 8000e92:	f000 b87f 	b.w	8000f94 <__malloc_unlock>
 8000e96:	4770      	bx	lr
 8000e98:	4411      	add	r1, r2
 8000e9a:	f107 0c08 	add.w	ip, r7, #8
 8000e9e:	6883      	ldr	r3, [r0, #8]
 8000ea0:	4563      	cmp	r3, ip
 8000ea2:	d03f      	beq.n	8000f24 <_free_r+0x18c>
 8000ea4:	68c2      	ldr	r2, [r0, #12]
 8000ea6:	60da      	str	r2, [r3, #12]
 8000ea8:	6093      	str	r3, [r2, #8]
 8000eaa:	f041 0301 	orr.w	r3, r1, #1
 8000eae:	606b      	str	r3, [r5, #4]
 8000eb0:	5069      	str	r1, [r5, r1]
 8000eb2:	e7a7      	b.n	8000e04 <_free_r+0x6c>
 8000eb4:	2b00      	cmp	r3, #0
 8000eb6:	d15f      	bne.n	8000f78 <_free_r+0x1e0>
 8000eb8:	440a      	add	r2, r1
 8000eba:	e9d0 1302 	ldrd	r1, r3, [r0, #8]
 8000ebe:	60cb      	str	r3, [r1, #12]
 8000ec0:	6099      	str	r1, [r3, #8]
 8000ec2:	f042 0301 	orr.w	r3, r2, #1
 8000ec6:	606b      	str	r3, [r5, #4]
 8000ec8:	50aa      	str	r2, [r5, r2]
 8000eca:	e7b0      	b.n	8000e2e <_free_r+0x96>
 8000ecc:	07db      	lsls	r3, r3, #31
 8000ece:	440a      	add	r2, r1
 8000ed0:	d407      	bmi.n	8000ee2 <_free_r+0x14a>
 8000ed2:	f854 3c08 	ldr.w	r3, [r4, #-8]
 8000ed6:	1aed      	subs	r5, r5, r3
 8000ed8:	441a      	add	r2, r3
 8000eda:	e9d5 1302 	ldrd	r1, r3, [r5, #8]
 8000ede:	60cb      	str	r3, [r1, #12]
 8000ee0:	6099      	str	r1, [r3, #8]
 8000ee2:	f042 0301 	orr.w	r3, r2, #1
 8000ee6:	606b      	str	r3, [r5, #4]
 8000ee8:	4b27      	ldr	r3, [pc, #156]	@ (8000f88 <_free_r+0x1f0>)
 8000eea:	60bd      	str	r5, [r7, #8]
 8000eec:	681b      	ldr	r3, [r3, #0]
 8000eee:	4293      	cmp	r3, r2
 8000ef0:	d89d      	bhi.n	8000e2e <_free_r+0x96>
 8000ef2:	4b26      	ldr	r3, [pc, #152]	@ (8000f8c <_free_r+0x1f4>)
 8000ef4:	4640      	mov	r0, r8
 8000ef6:	6819      	ldr	r1, [r3, #0]
 8000ef8:	f7ff fef2 	bl	8000ce0 <_malloc_trim_r>
 8000efc:	e797      	b.n	8000e2e <_free_r+0x96>
 8000efe:	4411      	add	r1, r2
 8000f00:	e7cd      	b.n	8000e9e <_free_r+0x106>
 8000f02:	2b14      	cmp	r3, #20
 8000f04:	d908      	bls.n	8000f18 <_free_r+0x180>
 8000f06:	2b54      	cmp	r3, #84	@ 0x54
 8000f08:	d81d      	bhi.n	8000f46 <_free_r+0x1ae>
 8000f0a:	0b0b      	lsrs	r3, r1, #12
 8000f0c:	f103 006f 	add.w	r0, r3, #111	@ 0x6f
 8000f10:	f103 026e 	add.w	r2, r3, #110	@ 0x6e
 8000f14:	00c3      	lsls	r3, r0, #3
 8000f16:	e7a6      	b.n	8000e66 <_free_r+0xce>
 8000f18:	f103 005c 	add.w	r0, r3, #92	@ 0x5c
 8000f1c:	f103 025b 	add.w	r2, r3, #91	@ 0x5b
 8000f20:	00c3      	lsls	r3, r0, #3
 8000f22:	e7a0      	b.n	8000e66 <_free_r+0xce>
 8000f24:	f041 0301 	orr.w	r3, r1, #1
 8000f28:	e9c7 5504 	strd	r5, r5, [r7, #16]
 8000f2c:	e9c5 cc02 	strd	ip, ip, [r5, #8]
 8000f30:	606b      	str	r3, [r5, #4]
 8000f32:	5069      	str	r1, [r5, r1]
 8000f34:	e77b      	b.n	8000e2e <_free_r+0x96>
 8000f36:	6879      	ldr	r1, [r7, #4]
 8000f38:	1092      	asrs	r2, r2, #2
 8000f3a:	2401      	movs	r4, #1
 8000f3c:	fa04 f202 	lsl.w	r2, r4, r2
 8000f40:	430a      	orrs	r2, r1
 8000f42:	607a      	str	r2, [r7, #4]
 8000f44:	e79e      	b.n	8000e84 <_free_r+0xec>
 8000f46:	f5b3 7faa 	cmp.w	r3, #340	@ 0x154
 8000f4a:	d806      	bhi.n	8000f5a <_free_r+0x1c2>
 8000f4c:	0bcb      	lsrs	r3, r1, #15
 8000f4e:	f103 0078 	add.w	r0, r3, #120	@ 0x78
 8000f52:	f103 0277 	add.w	r2, r3, #119	@ 0x77
 8000f56:	00c3      	lsls	r3, r0, #3
 8000f58:	e785      	b.n	8000e66 <_free_r+0xce>
 8000f5a:	f240 5254 	movw	r2, #1364	@ 0x554
 8000f5e:	4293      	cmp	r3, r2
 8000f60:	d806      	bhi.n	8000f70 <_free_r+0x1d8>
 8000f62:	0c8b      	lsrs	r3, r1, #18
 8000f64:	f103 007d 	add.w	r0, r3, #125	@ 0x7d
 8000f68:	f103 027c 	add.w	r2, r3, #124	@ 0x7c
 8000f6c:	00c3      	lsls	r3, r0, #3
 8000f6e:	e77a      	b.n	8000e66 <_free_r+0xce>
 8000f70:	f44f 737e 	mov.w	r3, #1016	@ 0x3f8
 8000f74:	227e      	movs	r2, #126	@ 0x7e
 8000f76:	e776      	b.n	8000e66 <_free_r+0xce>
 8000f78:	f041 0301 	orr.w	r3, r1, #1
 8000f7c:	606b      	str	r3, [r5, #4]
 8000f7e:	6001      	str	r1, [r0, #0]
 8000f80:	e755      	b.n	8000e2e <_free_r+0x96>
 8000f82:	bf00      	nop
 8000f84:	20000010 			@ <UNDEFINED> instruction: 20000010
 8000f88:	2000041c 			@ <UNDEFINED> instruction: 2000041c
 8000f8c:	200006c4 			@ <UNDEFINED> instruction: 200006c4

08000f90 <__malloc_lock>:
 8000f90:	4770      	bx	lr
 8000f92:	bf00      	nop

08000f94 <__malloc_unlock>:
 8000f94:	4770      	bx	lr
 8000f96:	bf00      	nop

08000f98 <_sbrk_r>:
 8000f98:	b538      	push	{r3, r4, r5, lr}
 8000f9a:	4d07      	ldr	r5, [pc, #28]	@ (8000fb8 <_sbrk_r+0x20>)
 8000f9c:	2200      	movs	r2, #0
 8000f9e:	4604      	mov	r4, r0
 8000fa0:	4608      	mov	r0, r1
 8000fa2:	602a      	str	r2, [r5, #0]
 8000fa4:	f000 ffca 	bl	8001f3c <_sbrk>
 8000fa8:	1c43      	adds	r3, r0, #1
 8000faa:	d000      	beq.n	8000fae <_sbrk_r+0x16>
 8000fac:	bd38      	pop	{r3, r4, r5, pc}
 8000fae:	682b      	ldr	r3, [r5, #0]
 8000fb0:	2b00      	cmp	r3, #0
 8000fb2:	d0fb      	beq.n	8000fac <_sbrk_r+0x14>
 8000fb4:	6023      	str	r3, [r4, #0]
 8000fb6:	bd38      	pop	{r3, r4, r5, pc}
 8000fb8:	200006f8 	strdcs	r0, [r0], -r8

08000fbc <atexit>:
 8000fbc:	2300      	movs	r3, #0
 8000fbe:	4601      	mov	r1, r0
 8000fc0:	461a      	mov	r2, r3
 8000fc2:	4618      	mov	r0, r3
 8000fc4:	f000 bd0a 	b.w	80019dc <__register_exitproc>

08000fc8 <__sfvwrite_r>:
 8000fc8:	6893      	ldr	r3, [r2, #8]
 8000fca:	2b00      	cmp	r3, #0
 8000fcc:	f000 80f8 	beq.w	80011c0 <__sfvwrite_r+0x1f8>
 8000fd0:	e92d 4ff0 	stmdb	sp!, {r4, r5, r6, r7, r8, r9, sl, fp, lr}
 8000fd4:	f9b1 c00c 	ldrsh.w	ip, [r1, #12]
 8000fd8:	f01c 0f08 	tst.w	ip, #8
 8000fdc:	b083      	sub	sp, #12
 8000fde:	4690      	mov	r8, r2
 8000fe0:	4681      	mov	r9, r0
 8000fe2:	460c      	mov	r4, r1
 8000fe4:	d031      	beq.n	800104a <__sfvwrite_r+0x82>
 8000fe6:	690b      	ldr	r3, [r1, #16]
 8000fe8:	b37b      	cbz	r3, 800104a <__sfvwrite_r+0x82>
 8000fea:	f01c 0702 	ands.w	r7, ip, #2
 8000fee:	f8d8 6000 	ldr.w	r6, [r8]
 8000ff2:	d038      	beq.n	8001066 <__sfvwrite_r+0x9e>
 8000ff4:	2700      	movs	r7, #0
 8000ff6:	f8d4 b024 	ldr.w	fp, [r4, #36]	@ 0x24
 8000ffa:	69e1      	ldr	r1, [r4, #28]
 8000ffc:	f8df a2c4 	ldr.w	sl, [pc, #708]	@ 80012c4 <__sfvwrite_r+0x2fc>
 8001000:	463d      	mov	r5, r7
 8001002:	4555      	cmp	r5, sl
 8001004:	462b      	mov	r3, r5
 8001006:	463a      	mov	r2, r7
 8001008:	bf28      	it	cs
 800100a:	4653      	movcs	r3, sl
 800100c:	4648      	mov	r0, r9
 800100e:	b1c5      	cbz	r5, 8001042 <__sfvwrite_r+0x7a>
 8001010:	47d8      	blx	fp
 8001012:	2800      	cmp	r0, #0
 8001014:	f340 80ca 	ble.w	80011ac <__sfvwrite_r+0x1e4>
 8001018:	f8d8 3008 	ldr.w	r3, [r8, #8]
 800101c:	1a1b      	subs	r3, r3, r0
 800101e:	4407      	add	r7, r0
 8001020:	1a2d      	subs	r5, r5, r0
 8001022:	f8c8 3008 	str.w	r3, [r8, #8]
 8001026:	2b00      	cmp	r3, #0
 8001028:	f000 80b6 	beq.w	8001198 <__sfvwrite_r+0x1d0>
 800102c:	4555      	cmp	r5, sl
 800102e:	462b      	mov	r3, r5
 8001030:	f8d4 b024 	ldr.w	fp, [r4, #36]	@ 0x24
 8001034:	69e1      	ldr	r1, [r4, #28]
 8001036:	bf28      	it	cs
 8001038:	4653      	movcs	r3, sl
 800103a:	463a      	mov	r2, r7
 800103c:	4648      	mov	r0, r9
 800103e:	2d00      	cmp	r5, #0
 8001040:	d1e6      	bne.n	8001010 <__sfvwrite_r+0x48>
 8001042:	e9d6 7500 	ldrd	r7, r5, [r6]
 8001046:	3608      	adds	r6, #8
 8001048:	e7db      	b.n	8001002 <__sfvwrite_r+0x3a>
 800104a:	4621      	mov	r1, r4
 800104c:	4648      	mov	r0, r9
 800104e:	f000 fc1f 	bl	8001890 <__swsetup_r>
 8001052:	2800      	cmp	r0, #0
 8001054:	f040 80af 	bne.w	80011b6 <__sfvwrite_r+0x1ee>
 8001058:	f9b4 c00c 	ldrsh.w	ip, [r4, #12]
 800105c:	f8d8 6000 	ldr.w	r6, [r8]
 8001060:	f01c 0702 	ands.w	r7, ip, #2
 8001064:	d1c6      	bne.n	8000ff4 <__sfvwrite_r+0x2c>
 8001066:	f01c 0a01 	ands.w	sl, ip, #1
 800106a:	d163      	bne.n	8001134 <__sfvwrite_r+0x16c>
 800106c:	6823      	ldr	r3, [r4, #0]
 800106e:	68a1      	ldr	r1, [r4, #8]
 8001070:	4657      	mov	r7, sl
 8001072:	4618      	mov	r0, r3
 8001074:	468b      	mov	fp, r1
 8001076:	2f00      	cmp	r7, #0
 8001078:	d058      	beq.n	800112c <__sfvwrite_r+0x164>
 800107a:	f41c 7f00 	tst.w	ip, #512	@ 0x200
 800107e:	f000 80b5 	beq.w	80011ec <__sfvwrite_r+0x224>
 8001082:	42b9      	cmp	r1, r7
 8001084:	460a      	mov	r2, r1
 8001086:	f200 80e1 	bhi.w	800124c <__sfvwrite_r+0x284>
 800108a:	f41c 6f90 	tst.w	ip, #1152	@ 0x480
 800108e:	d02f      	beq.n	80010f0 <__sfvwrite_r+0x128>
 8001090:	6921      	ldr	r1, [r4, #16]
 8001092:	6962      	ldr	r2, [r4, #20]
 8001094:	1a5d      	subs	r5, r3, r1
 8001096:	eb02 0242 	add.w	r2, r2, r2, lsl #1
 800109a:	eb02 72d2 	add.w	r2, r2, r2, lsr #31
 800109e:	1c6b      	adds	r3, r5, #1
 80010a0:	1052      	asrs	r2, r2, #1
 80010a2:	443b      	add	r3, r7
 80010a4:	4293      	cmp	r3, r2
 80010a6:	bf92      	itee	ls
 80010a8:	4693      	movls	fp, r2
 80010aa:	469b      	movhi	fp, r3
 80010ac:	461a      	movhi	r2, r3
 80010ae:	f41c 6f80 	tst.w	ip, #1024	@ 0x400
 80010b2:	f000 80ea 	beq.w	800128a <__sfvwrite_r+0x2c2>
 80010b6:	4611      	mov	r1, r2
 80010b8:	4648      	mov	r0, r9
 80010ba:	f7ff fb67 	bl	800078c <_malloc_r>
 80010be:	2800      	cmp	r0, #0
 80010c0:	f000 80f9 	beq.w	80012b6 <__sfvwrite_r+0x2ee>
 80010c4:	462a      	mov	r2, r5
 80010c6:	6921      	ldr	r1, [r4, #16]
 80010c8:	9000      	str	r0, [sp, #0]
 80010ca:	f000 f8fd 	bl	80012c8 <memcpy>
 80010ce:	89a2      	ldrh	r2, [r4, #12]
 80010d0:	9b00      	ldr	r3, [sp, #0]
 80010d2:	f422 6290 	bic.w	r2, r2, #1152	@ 0x480
 80010d6:	f042 0280 	orr.w	r2, r2, #128	@ 0x80
 80010da:	81a2      	strh	r2, [r4, #12]
 80010dc:	1958      	adds	r0, r3, r5
 80010de:	ebab 0505 	sub.w	r5, fp, r5
 80010e2:	f8c4 b014 	str.w	fp, [r4, #20]
 80010e6:	6123      	str	r3, [r4, #16]
 80010e8:	60a5      	str	r5, [r4, #8]
 80010ea:	6020      	str	r0, [r4, #0]
 80010ec:	46bb      	mov	fp, r7
 80010ee:	463a      	mov	r2, r7
 80010f0:	4651      	mov	r1, sl
 80010f2:	9200      	str	r2, [sp, #0]
 80010f4:	f000 faec 	bl	80016d0 <memmove>
 80010f8:	68a1      	ldr	r1, [r4, #8]
 80010fa:	6823      	ldr	r3, [r4, #0]
 80010fc:	9a00      	ldr	r2, [sp, #0]
 80010fe:	eba1 010b 	sub.w	r1, r1, fp
 8001102:	441a      	add	r2, r3
 8001104:	463d      	mov	r5, r7
 8001106:	60a1      	str	r1, [r4, #8]
 8001108:	6022      	str	r2, [r4, #0]
 800110a:	2700      	movs	r7, #0
 800110c:	f8d8 3008 	ldr.w	r3, [r8, #8]
 8001110:	1b5b      	subs	r3, r3, r5
 8001112:	44aa      	add	sl, r5
 8001114:	f8c8 3008 	str.w	r3, [r8, #8]
 8001118:	2b00      	cmp	r3, #0
 800111a:	d03d      	beq.n	8001198 <__sfvwrite_r+0x1d0>
 800111c:	6823      	ldr	r3, [r4, #0]
 800111e:	68a1      	ldr	r1, [r4, #8]
 8001120:	f9b4 c00c 	ldrsh.w	ip, [r4, #12]
 8001124:	4618      	mov	r0, r3
 8001126:	468b      	mov	fp, r1
 8001128:	2f00      	cmp	r7, #0
 800112a:	d1a6      	bne.n	800107a <__sfvwrite_r+0xb2>
 800112c:	e9d6 a700 	ldrd	sl, r7, [r6]
 8001130:	3608      	adds	r6, #8
 8001132:	e79e      	b.n	8001072 <__sfvwrite_r+0xaa>
 8001134:	4638      	mov	r0, r7
 8001136:	46bb      	mov	fp, r7
 8001138:	463d      	mov	r5, r7
 800113a:	9700      	str	r7, [sp, #0]
 800113c:	2d00      	cmp	r5, #0
 800113e:	d041      	beq.n	80011c4 <__sfvwrite_r+0x1fc>
 8001140:	2800      	cmp	r0, #0
 8001142:	d046      	beq.n	80011d2 <__sfvwrite_r+0x20a>
 8001144:	9a00      	ldr	r2, [sp, #0]
 8001146:	6820      	ldr	r0, [r4, #0]
 8001148:	68a1      	ldr	r1, [r4, #8]
 800114a:	e9d4 7304 	ldrd	r7, r3, [r4, #16]
 800114e:	42aa      	cmp	r2, r5
 8001150:	bf28      	it	cs
 8001152:	462a      	movcs	r2, r5
 8001154:	42b8      	cmp	r0, r7
 8001156:	d904      	bls.n	8001162 <__sfvwrite_r+0x19a>
 8001158:	eb01 0a03 	add.w	sl, r1, r3
 800115c:	4552      	cmp	r2, sl
 800115e:	f300 8085 	bgt.w	800126c <__sfvwrite_r+0x2a4>
 8001162:	4293      	cmp	r3, r2
 8001164:	dc75      	bgt.n	8001252 <__sfvwrite_r+0x28a>
 8001166:	69e1      	ldr	r1, [r4, #28]
 8001168:	6a67      	ldr	r7, [r4, #36]	@ 0x24
 800116a:	465a      	mov	r2, fp
 800116c:	4648      	mov	r0, r9
 800116e:	47b8      	blx	r7
 8001170:	f1b0 0a00 	subs.w	sl, r0, #0
 8001174:	dd1a      	ble.n	80011ac <__sfvwrite_r+0x1e4>
 8001176:	9b00      	ldr	r3, [sp, #0]
 8001178:	ebb3 030a 	subs.w	r3, r3, sl
 800117c:	9300      	str	r3, [sp, #0]
 800117e:	d00f      	beq.n	80011a0 <__sfvwrite_r+0x1d8>
 8001180:	2001      	movs	r0, #1
 8001182:	f8d8 3008 	ldr.w	r3, [r8, #8]
 8001186:	eba3 030a 	sub.w	r3, r3, sl
 800118a:	44d3      	add	fp, sl
 800118c:	eba5 050a 	sub.w	r5, r5, sl
 8001190:	f8c8 3008 	str.w	r3, [r8, #8]
 8001194:	2b00      	cmp	r3, #0
 8001196:	d1d1      	bne.n	800113c <__sfvwrite_r+0x174>
 8001198:	2000      	movs	r0, #0
 800119a:	b003      	add	sp, #12
 800119c:	e8bd 8ff0 	ldmia.w	sp!, {r4, r5, r6, r7, r8, r9, sl, fp, pc}
 80011a0:	4621      	mov	r1, r4
 80011a2:	4648      	mov	r0, r9
 80011a4:	f000 fa10 	bl	80015c8 <_fflush_r>
 80011a8:	2800      	cmp	r0, #0
 80011aa:	d0ea      	beq.n	8001182 <__sfvwrite_r+0x1ba>
 80011ac:	f9b4 300c 	ldrsh.w	r3, [r4, #12]
 80011b0:	f043 0340 	orr.w	r3, r3, #64	@ 0x40
 80011b4:	81a3      	strh	r3, [r4, #12]
 80011b6:	f04f 30ff 	mov.w	r0, #4294967295	@ 0xffffffff
 80011ba:	b003      	add	sp, #12
 80011bc:	e8bd 8ff0 	ldmia.w	sp!, {r4, r5, r6, r7, r8, r9, sl, fp, pc}
 80011c0:	2000      	movs	r0, #0
 80011c2:	4770      	bx	lr
 80011c4:	6875      	ldr	r5, [r6, #4]
 80011c6:	4633      	mov	r3, r6
 80011c8:	3608      	adds	r6, #8
 80011ca:	2d00      	cmp	r5, #0
 80011cc:	d0fa      	beq.n	80011c4 <__sfvwrite_r+0x1fc>
 80011ce:	f8d3 b000 	ldr.w	fp, [r3]
 80011d2:	462a      	mov	r2, r5
 80011d4:	210a      	movs	r1, #10
 80011d6:	4658      	mov	r0, fp
 80011d8:	f000 fb0a 	bl	80017f0 <memchr>
 80011dc:	2800      	cmp	r0, #0
 80011de:	d067      	beq.n	80012b0 <__sfvwrite_r+0x2e8>
 80011e0:	3001      	adds	r0, #1
 80011e2:	eba0 030b 	sub.w	r3, r0, fp
 80011e6:	9300      	str	r3, [sp, #0]
 80011e8:	461a      	mov	r2, r3
 80011ea:	e7ac      	b.n	8001146 <__sfvwrite_r+0x17e>
 80011ec:	6922      	ldr	r2, [r4, #16]
 80011ee:	429a      	cmp	r2, r3
 80011f0:	d314      	bcc.n	800121c <__sfvwrite_r+0x254>
 80011f2:	6962      	ldr	r2, [r4, #20]
 80011f4:	42ba      	cmp	r2, r7
 80011f6:	d811      	bhi.n	800121c <__sfvwrite_r+0x254>
 80011f8:	f06f 4300 	mvn.w	r3, #2147483648	@ 0x80000000
 80011fc:	42bb      	cmp	r3, r7
 80011fe:	bf28      	it	cs
 8001200:	463b      	movcs	r3, r7
 8001202:	6a65      	ldr	r5, [r4, #36]	@ 0x24
 8001204:	fb93 f3f2 	sdiv	r3, r3, r2
 8001208:	69e1      	ldr	r1, [r4, #28]
 800120a:	fb02 f303 	mul.w	r3, r2, r3
 800120e:	4648      	mov	r0, r9
 8001210:	4652      	mov	r2, sl
 8001212:	47a8      	blx	r5
 8001214:	1e05      	subs	r5, r0, #0
 8001216:	ddc9      	ble.n	80011ac <__sfvwrite_r+0x1e4>
 8001218:	1b7f      	subs	r7, r7, r5
 800121a:	e777      	b.n	800110c <__sfvwrite_r+0x144>
 800121c:	42b9      	cmp	r1, r7
 800121e:	bf28      	it	cs
 8001220:	4639      	movcs	r1, r7
 8001222:	460d      	mov	r5, r1
 8001224:	4618      	mov	r0, r3
 8001226:	460a      	mov	r2, r1
 8001228:	4651      	mov	r1, sl
 800122a:	f000 fa51 	bl	80016d0 <memmove>
 800122e:	68a1      	ldr	r1, [r4, #8]
 8001230:	6823      	ldr	r3, [r4, #0]
 8001232:	1b49      	subs	r1, r1, r5
 8001234:	442b      	add	r3, r5
 8001236:	60a1      	str	r1, [r4, #8]
 8001238:	6023      	str	r3, [r4, #0]
 800123a:	2900      	cmp	r1, #0
 800123c:	d1ec      	bne.n	8001218 <__sfvwrite_r+0x250>
 800123e:	4621      	mov	r1, r4
 8001240:	4648      	mov	r0, r9
 8001242:	f000 f9c1 	bl	80015c8 <_fflush_r>
 8001246:	2800      	cmp	r0, #0
 8001248:	d0e6      	beq.n	8001218 <__sfvwrite_r+0x250>
 800124a:	e7af      	b.n	80011ac <__sfvwrite_r+0x1e4>
 800124c:	46bb      	mov	fp, r7
 800124e:	463a      	mov	r2, r7
 8001250:	e74e      	b.n	80010f0 <__sfvwrite_r+0x128>
 8001252:	4659      	mov	r1, fp
 8001254:	9201      	str	r2, [sp, #4]
 8001256:	f000 fa3b 	bl	80016d0 <memmove>
 800125a:	9a01      	ldr	r2, [sp, #4]
 800125c:	68a3      	ldr	r3, [r4, #8]
 800125e:	1a9b      	subs	r3, r3, r2
 8001260:	60a3      	str	r3, [r4, #8]
 8001262:	6823      	ldr	r3, [r4, #0]
 8001264:	4413      	add	r3, r2
 8001266:	6023      	str	r3, [r4, #0]
 8001268:	4692      	mov	sl, r2
 800126a:	e784      	b.n	8001176 <__sfvwrite_r+0x1ae>
 800126c:	4659      	mov	r1, fp
 800126e:	4652      	mov	r2, sl
 8001270:	f000 fa2e 	bl	80016d0 <memmove>
 8001274:	6823      	ldr	r3, [r4, #0]
 8001276:	4453      	add	r3, sl
 8001278:	6023      	str	r3, [r4, #0]
 800127a:	4621      	mov	r1, r4
 800127c:	4648      	mov	r0, r9
 800127e:	f000 f9a3 	bl	80015c8 <_fflush_r>
 8001282:	2800      	cmp	r0, #0
 8001284:	f43f af77 	beq.w	8001176 <__sfvwrite_r+0x1ae>
 8001288:	e790      	b.n	80011ac <__sfvwrite_r+0x1e4>
 800128a:	4648      	mov	r0, r9
 800128c:	f000 fbd8 	bl	8001a40 <_realloc_r>
 8001290:	4603      	mov	r3, r0
 8001292:	2800      	cmp	r0, #0
 8001294:	f47f af22 	bne.w	80010dc <__sfvwrite_r+0x114>
 8001298:	6921      	ldr	r1, [r4, #16]
 800129a:	4648      	mov	r0, r9
 800129c:	f7ff fd7c 	bl	8000d98 <_free_r>
 80012a0:	f9b4 300c 	ldrsh.w	r3, [r4, #12]
 80012a4:	220c      	movs	r2, #12
 80012a6:	f8c9 2000 	str.w	r2, [r9]
 80012aa:	f023 0380 	bic.w	r3, r3, #128	@ 0x80
 80012ae:	e77f      	b.n	80011b0 <__sfvwrite_r+0x1e8>
 80012b0:	1c6a      	adds	r2, r5, #1
 80012b2:	9200      	str	r2, [sp, #0]
 80012b4:	e747      	b.n	8001146 <__sfvwrite_r+0x17e>
 80012b6:	220c      	movs	r2, #12
 80012b8:	f9b4 300c 	ldrsh.w	r3, [r4, #12]
 80012bc:	f8c9 2000 	str.w	r2, [r9]
 80012c0:	e776      	b.n	80011b0 <__sfvwrite_r+0x1e8>
 80012c2:	bf00      	nop
 80012c4:	7ffffc00 			@ <UNDEFINED> instruction: 7ffffc00

080012c8 <memcpy>:
 80012c8:	4684      	mov	ip, r0
 80012ca:	ea41 0300 	orr.w	r3, r1, r0
 80012ce:	f013 0303 	ands.w	r3, r3, #3
 80012d2:	d16d      	bne.n	80013b0 <memcpy+0xe8>
 80012d4:	3a40      	subs	r2, #64	@ 0x40
 80012d6:	d341      	bcc.n	800135c <memcpy+0x94>
 80012d8:	f851 3b04 	ldr.w	r3, [r1], #4
 80012dc:	f840 3b04 	str.w	r3, [r0], #4
 80012e0:	f851 3b04 	ldr.w	r3, [r1], #4
 80012e4:	f840 3b04 	str.w	r3, [r0], #4
 80012e8:	f851 3b04 	ldr.w	r3, [r1], #4
 80012ec:	f840 3b04 	str.w	r3, [r0], #4
 80012f0:	f851 3b04 	ldr.w	r3, [r1], #4
 80012f4:	f840 3b04 	str.w	r3, [r0], #4
 80012f8:	f851 3b04 	ldr.w	r3, [r1], #4
 80012fc:	f840 3b04 	str.w	r3, [r0], #4
 8001300:	f851 3b04 	ldr.w	r3, [r1], #4
 8001304:	f840 3b04 	str.w	r3, [r0], #4
 8001308:	f851 3b04 	ldr.w	r3, [r1], #4
 800130c:	f840 3b04 	str.w	r3, [r0], #4
 8001310:	f851 3b04 	ldr.w	r3, [r1], #4
 8001314:	f840 3b04 	str.w	r3, [r0], #4
 8001318:	f851 3b04 	ldr.w	r3, [r1], #4
 800131c:	f840 3b04 	str.w	r3, [r0], #4
 8001320:	f851 3b04 	ldr.w	r3, [r1], #4
 8001324:	f840 3b04 	str.w	r3, [r0], #4
 8001328:	f851 3b04 	ldr.w	r3, [r1], #4
 800132c:	f840 3b04 	str.w	r3, [r0], #4
 8001330:	f851 3b04 	ldr.w	r3, [r1], #4
 8001334:	f840 3b04 	str.w	r3, [r0], #4
 8001338:	f851 3b04 	ldr.w	r3, [r1], #4
 800133c:	f840 3b04 	str.w	r3, [r0], #4
 8001340:	f851 3b04 	ldr.w	r3, [r1], #4
 8001344:	f840 3b04 	str.w	r3, [r0], #4
 8001348:	f851 3b04 	ldr.w	r3, [r1], #4
 800134c:	f840 3b04 	str.w	r3, [r0], #4
 8001350:	f851 3b04 	ldr.w	r3, [r1], #4
 8001354:	f840 3b04 	str.w	r3, [r0], #4
 8001358:	3a40      	subs	r2, #64	@ 0x40
 800135a:	d2bd      	bcs.n	80012d8 <memcpy+0x10>
 800135c:	3230      	adds	r2, #48	@ 0x30
 800135e:	d311      	bcc.n	8001384 <memcpy+0xbc>
 8001360:	f851 3b04 	ldr.w	r3, [r1], #4
 8001364:	f840 3b04 	str.w	r3, [r0], #4
 8001368:	f851 3b04 	ldr.w	r3, [r1], #4
 800136c:	f840 3b04 	str.w	r3, [r0], #4
 8001370:	f851 3b04 	ldr.w	r3, [r1], #4
 8001374:	f840 3b04 	str.w	r3, [r0], #4
 8001378:	f851 3b04 	ldr.w	r3, [r1], #4
 800137c:	f840 3b04 	str.w	r3, [r0], #4
 8001380:	3a10      	subs	r2, #16
 8001382:	d2ed      	bcs.n	8001360 <memcpy+0x98>
 8001384:	320c      	adds	r2, #12
 8001386:	d305      	bcc.n	8001394 <memcpy+0xcc>
 8001388:	f851 3b04 	ldr.w	r3, [r1], #4
 800138c:	f840 3b04 	str.w	r3, [r0], #4
 8001390:	3a04      	subs	r2, #4
 8001392:	d2f9      	bcs.n	8001388 <memcpy+0xc0>
 8001394:	3204      	adds	r2, #4
 8001396:	d008      	beq.n	80013aa <memcpy+0xe2>
 8001398:	07d2      	lsls	r2, r2, #31
 800139a:	bf1c      	itt	ne
 800139c:	f811 3b01 	ldrbne.w	r3, [r1], #1
 80013a0:	f800 3b01 	strbne.w	r3, [r0], #1
 80013a4:	d301      	bcc.n	80013aa <memcpy+0xe2>
 80013a6:	880b      	ldrh	r3, [r1, #0]
 80013a8:	8003      	strh	r3, [r0, #0]
 80013aa:	4660      	mov	r0, ip
 80013ac:	4770      	bx	lr
 80013ae:	bf00      	nop
 80013b0:	2a08      	cmp	r2, #8
 80013b2:	d313      	bcc.n	80013dc <memcpy+0x114>
 80013b4:	078b      	lsls	r3, r1, #30
 80013b6:	d08d      	beq.n	80012d4 <memcpy+0xc>
 80013b8:	f010 0303 	ands.w	r3, r0, #3
 80013bc:	d08a      	beq.n	80012d4 <memcpy+0xc>
 80013be:	f1c3 0304 	rsb	r3, r3, #4
 80013c2:	1ad2      	subs	r2, r2, r3
 80013c4:	07db      	lsls	r3, r3, #31
 80013c6:	bf1c      	itt	ne
 80013c8:	f811 3b01 	ldrbne.w	r3, [r1], #1
 80013cc:	f800 3b01 	strbne.w	r3, [r0], #1
 80013d0:	d380      	bcc.n	80012d4 <memcpy+0xc>
 80013d2:	f831 3b02 	ldrh.w	r3, [r1], #2
 80013d6:	f820 3b02 	strh.w	r3, [r0], #2
 80013da:	e77b      	b.n	80012d4 <memcpy+0xc>
 80013dc:	3a04      	subs	r2, #4
 80013de:	d3d9      	bcc.n	8001394 <memcpy+0xcc>
 80013e0:	3a01      	subs	r2, #1
 80013e2:	f811 3b01 	ldrb.w	r3, [r1], #1
 80013e6:	f800 3b01 	strb.w	r3, [r0], #1
 80013ea:	d2f9      	bcs.n	80013e0 <memcpy+0x118>
 80013ec:	780b      	ldrb	r3, [r1, #0]
 80013ee:	7003      	strb	r3, [r0, #0]
 80013f0:	784b      	ldrb	r3, [r1, #1]
 80013f2:	7043      	strb	r3, [r0, #1]
 80013f4:	788b      	ldrb	r3, [r1, #2]
 80013f6:	7083      	strb	r3, [r0, #2]
 80013f8:	4660      	mov	r0, ip
 80013fa:	4770      	bx	lr

080013fc <__sread>:
 80013fc:	b510      	push	{r4, lr}
 80013fe:	460c      	mov	r4, r1
 8001400:	f9b1 100e 	ldrsh.w	r1, [r1, #14]
 8001404:	f000 fcbe 	bl	8001d84 <_read_r>
 8001408:	2800      	cmp	r0, #0
 800140a:	db03      	blt.n	8001414 <__sread+0x18>
 800140c:	6d23      	ldr	r3, [r4, #80]	@ 0x50
 800140e:	4403      	add	r3, r0
 8001410:	6523      	str	r3, [r4, #80]	@ 0x50
 8001412:	bd10      	pop	{r4, pc}
 8001414:	89a3      	ldrh	r3, [r4, #12]
 8001416:	f423 5380 	bic.w	r3, r3, #4096	@ 0x1000
 800141a:	81a3      	strh	r3, [r4, #12]
 800141c:	bd10      	pop	{r4, pc}
 800141e:	bf00      	nop

08001420 <__seofread>:
 8001420:	2000      	movs	r0, #0
 8001422:	4770      	bx	lr

08001424 <__swrite>:
 8001424:	e92d 41f0 	stmdb	sp!, {r4, r5, r6, r7, r8, lr}
 8001428:	460c      	mov	r4, r1
 800142a:	f9b1 100c 	ldrsh.w	r1, [r1, #12]
 800142e:	461f      	mov	r7, r3
 8001430:	05cb      	lsls	r3, r1, #23
 8001432:	4605      	mov	r5, r0
 8001434:	4616      	mov	r6, r2
 8001436:	d40b      	bmi.n	8001450 <__swrite+0x2c>
 8001438:	f421 5180 	bic.w	r1, r1, #4096	@ 0x1000
 800143c:	81a1      	strh	r1, [r4, #12]
 800143e:	463b      	mov	r3, r7
 8001440:	f9b4 100e 	ldrsh.w	r1, [r4, #14]
 8001444:	4632      	mov	r2, r6
 8001446:	4628      	mov	r0, r5
 8001448:	e8bd 41f0 	ldmia.w	sp!, {r4, r5, r6, r7, r8, lr}
 800144c:	f000 ba88 	b.w	8001960 <_write_r>
 8001450:	f9b4 100e 	ldrsh.w	r1, [r4, #14]
 8001454:	2302      	movs	r3, #2
 8001456:	2200      	movs	r2, #0
 8001458:	f000 faaa 	bl	80019b0 <_lseek_r>
 800145c:	f9b4 100c 	ldrsh.w	r1, [r4, #12]
 8001460:	e7ea      	b.n	8001438 <__swrite+0x14>
 8001462:	bf00      	nop

08001464 <__sseek>:
 8001464:	b510      	push	{r4, lr}
 8001466:	460c      	mov	r4, r1
 8001468:	f9b1 100e 	ldrsh.w	r1, [r1, #14]
 800146c:	f000 faa0 	bl	80019b0 <_lseek_r>
 8001470:	f9b4 300c 	ldrsh.w	r3, [r4, #12]
 8001474:	1c42      	adds	r2, r0, #1
 8001476:	bf0e      	itee	eq
 8001478:	f423 5380 	biceq.w	r3, r3, #4096	@ 0x1000
 800147c:	f443 5380 	orrne.w	r3, r3, #4096	@ 0x1000
 8001480:	6520      	strne	r0, [r4, #80]	@ 0x50
 8001482:	81a3      	strh	r3, [r4, #12]
 8001484:	bd10      	pop	{r4, pc}
 8001486:	bf00      	nop

08001488 <__sclose>:
 8001488:	f9b1 100e 	ldrsh.w	r1, [r1, #14]
 800148c:	f000 ba7e 	b.w	800198c <_close_r>

08001490 <__sflush_r>:
 8001490:	f9b1 200c 	ldrsh.w	r2, [r1, #12]
 8001494:	e92d 41f0 	stmdb	sp!, {r4, r5, r6, r7, r8, lr}
 8001498:	0716      	lsls	r6, r2, #28
 800149a:	460c      	mov	r4, r1
 800149c:	4680      	mov	r8, r0
 800149e:	d44e      	bmi.n	800153e <__sflush_r+0xae>
 80014a0:	6849      	ldr	r1, [r1, #4]
 80014a2:	f442 6300 	orr.w	r3, r2, #2048	@ 0x800
 80014a6:	2900      	cmp	r1, #0
 80014a8:	81a3      	strh	r3, [r4, #12]
 80014aa:	dd63      	ble.n	8001574 <__sflush_r+0xe4>
 80014ac:	6aa5      	ldr	r5, [r4, #40]	@ 0x28
 80014ae:	2d00      	cmp	r5, #0
 80014b0:	d042      	beq.n	8001538 <__sflush_r+0xa8>
 80014b2:	2100      	movs	r1, #0
 80014b4:	f412 5280 	ands.w	r2, r2, #4096	@ 0x1000
 80014b8:	f8d8 6000 	ldr.w	r6, [r8]
 80014bc:	f8c8 1000 	str.w	r1, [r8]
 80014c0:	69e1      	ldr	r1, [r4, #28]
 80014c2:	d164      	bne.n	800158e <__sflush_r+0xfe>
 80014c4:	2301      	movs	r3, #1
 80014c6:	4640      	mov	r0, r8
 80014c8:	47a8      	blx	r5
 80014ca:	1c45      	adds	r5, r0, #1
 80014cc:	4602      	mov	r2, r0
 80014ce:	d06e      	beq.n	80015ae <__sflush_r+0x11e>
 80014d0:	f9b4 300c 	ldrsh.w	r3, [r4, #12]
 80014d4:	6aa5      	ldr	r5, [r4, #40]	@ 0x28
 80014d6:	69e1      	ldr	r1, [r4, #28]
 80014d8:	0758      	lsls	r0, r3, #29
 80014da:	d505      	bpl.n	80014e8 <__sflush_r+0x58>
 80014dc:	6863      	ldr	r3, [r4, #4]
 80014de:	1ad2      	subs	r2, r2, r3
 80014e0:	6b23      	ldr	r3, [r4, #48]	@ 0x30
 80014e2:	b10b      	cbz	r3, 80014e8 <__sflush_r+0x58>
 80014e4:	6be3      	ldr	r3, [r4, #60]	@ 0x3c
 80014e6:	1ad2      	subs	r2, r2, r3
 80014e8:	2300      	movs	r3, #0
 80014ea:	4640      	mov	r0, r8
 80014ec:	47a8      	blx	r5
 80014ee:	1c43      	adds	r3, r0, #1
 80014f0:	d14f      	bne.n	8001592 <__sflush_r+0x102>
 80014f2:	f8d8 1000 	ldr.w	r1, [r8]
 80014f6:	f9b4 300c 	ldrsh.w	r3, [r4, #12]
 80014fa:	291d      	cmp	r1, #29
 80014fc:	d840      	bhi.n	8001580 <__sflush_r+0xf0>
 80014fe:	4a31      	ldr	r2, [pc, #196]	@ (80015c4 <__sflush_r+0x134>)
 8001500:	40ca      	lsrs	r2, r1
 8001502:	07d7      	lsls	r7, r2, #31
 8001504:	d53c      	bpl.n	8001580 <__sflush_r+0xf0>
 8001506:	6922      	ldr	r2, [r4, #16]
 8001508:	6022      	str	r2, [r4, #0]
 800150a:	f423 6200 	bic.w	r2, r3, #2048	@ 0x800
 800150e:	81a2      	strh	r2, [r4, #12]
 8001510:	04dd      	lsls	r5, r3, #19
 8001512:	f04f 0200 	mov.w	r2, #0
 8001516:	6062      	str	r2, [r4, #4]
 8001518:	d501      	bpl.n	800151e <__sflush_r+0x8e>
 800151a:	2900      	cmp	r1, #0
 800151c:	d045      	beq.n	80015aa <__sflush_r+0x11a>
 800151e:	6b21      	ldr	r1, [r4, #48]	@ 0x30
 8001520:	f8c8 6000 	str.w	r6, [r8]
 8001524:	b141      	cbz	r1, 8001538 <__sflush_r+0xa8>
 8001526:	f104 0340 	add.w	r3, r4, #64	@ 0x40
 800152a:	4299      	cmp	r1, r3
 800152c:	d002      	beq.n	8001534 <__sflush_r+0xa4>
 800152e:	4640      	mov	r0, r8
 8001530:	f7ff fc32 	bl	8000d98 <_free_r>
 8001534:	2300      	movs	r3, #0
 8001536:	6323      	str	r3, [r4, #48]	@ 0x30
 8001538:	2000      	movs	r0, #0
 800153a:	e8bd 81f0 	ldmia.w	sp!, {r4, r5, r6, r7, r8, pc}
 800153e:	690e      	ldr	r6, [r1, #16]
 8001540:	2e00      	cmp	r6, #0
 8001542:	d0f9      	beq.n	8001538 <__sflush_r+0xa8>
 8001544:	680d      	ldr	r5, [r1, #0]
 8001546:	600e      	str	r6, [r1, #0]
 8001548:	0792      	lsls	r2, r2, #30
 800154a:	bf0c      	ite	eq
 800154c:	694b      	ldreq	r3, [r1, #20]
 800154e:	2300      	movne	r3, #0
 8001550:	1bad      	subs	r5, r5, r6
 8001552:	608b      	str	r3, [r1, #8]
 8001554:	e00b      	b.n	800156e <__sflush_r+0xde>
 8001556:	462b      	mov	r3, r5
 8001558:	4632      	mov	r2, r6
 800155a:	69e1      	ldr	r1, [r4, #28]
 800155c:	6a67      	ldr	r7, [r4, #36]	@ 0x24
 800155e:	4640      	mov	r0, r8
 8001560:	47b8      	blx	r7
 8001562:	f1b0 0c00 	subs.w	ip, r0, #0
 8001566:	eba5 050c 	sub.w	r5, r5, ip
 800156a:	4466      	add	r6, ip
 800156c:	dd06      	ble.n	800157c <__sflush_r+0xec>
 800156e:	2d00      	cmp	r5, #0
 8001570:	dcf1      	bgt.n	8001556 <__sflush_r+0xc6>
 8001572:	e7e1      	b.n	8001538 <__sflush_r+0xa8>
 8001574:	6be1      	ldr	r1, [r4, #60]	@ 0x3c
 8001576:	2900      	cmp	r1, #0
 8001578:	dc98      	bgt.n	80014ac <__sflush_r+0x1c>
 800157a:	e7dd      	b.n	8001538 <__sflush_r+0xa8>
 800157c:	f9b4 300c 	ldrsh.w	r3, [r4, #12]
 8001580:	f043 0340 	orr.w	r3, r3, #64	@ 0x40
 8001584:	81a3      	strh	r3, [r4, #12]
 8001586:	f04f 30ff 	mov.w	r0, #4294967295	@ 0xffffffff
 800158a:	e8bd 81f0 	ldmia.w	sp!, {r4, r5, r6, r7, r8, pc}
 800158e:	6d22      	ldr	r2, [r4, #80]	@ 0x50
 8001590:	e7a2      	b.n	80014d8 <__sflush_r+0x48>
 8001592:	f9b4 300c 	ldrsh.w	r3, [r4, #12]
 8001596:	6922      	ldr	r2, [r4, #16]
 8001598:	6022      	str	r2, [r4, #0]
 800159a:	f423 6200 	bic.w	r2, r3, #2048	@ 0x800
 800159e:	81a2      	strh	r2, [r4, #12]
 80015a0:	04db      	lsls	r3, r3, #19
 80015a2:	f04f 0200 	mov.w	r2, #0
 80015a6:	6062      	str	r2, [r4, #4]
 80015a8:	d5b9      	bpl.n	800151e <__sflush_r+0x8e>
 80015aa:	6520      	str	r0, [r4, #80]	@ 0x50
 80015ac:	e7b7      	b.n	800151e <__sflush_r+0x8e>
 80015ae:	f8d8 3000 	ldr.w	r3, [r8]
 80015b2:	2b00      	cmp	r3, #0
 80015b4:	d08c      	beq.n	80014d0 <__sflush_r+0x40>
 80015b6:	2b1d      	cmp	r3, #29
 80015b8:	d001      	beq.n	80015be <__sflush_r+0x12e>
 80015ba:	2b16      	cmp	r3, #22
 80015bc:	d1de      	bne.n	800157c <__sflush_r+0xec>
 80015be:	f8c8 6000 	str.w	r6, [r8]
 80015c2:	e7b9      	b.n	8001538 <__sflush_r+0xa8>
 80015c4:	20400001 			@ <UNDEFINED> instruction: 20400001

080015c8 <_fflush_r>:
 80015c8:	b510      	push	{r4, lr}
 80015ca:	4604      	mov	r4, r0
 80015cc:	b082      	sub	sp, #8
 80015ce:	b108      	cbz	r0, 80015d4 <_fflush_r+0xc>
 80015d0:	6b43      	ldr	r3, [r0, #52]	@ 0x34
 80015d2:	b153      	cbz	r3, 80015ea <_fflush_r+0x22>
 80015d4:	f9b1 000c 	ldrsh.w	r0, [r1, #12]
 80015d8:	b908      	cbnz	r0, 80015de <_fflush_r+0x16>
 80015da:	b002      	add	sp, #8
 80015dc:	bd10      	pop	{r4, pc}
 80015de:	4620      	mov	r0, r4
 80015e0:	b002      	add	sp, #8
 80015e2:	e8bd 4010 	ldmia.w	sp!, {r4, lr}
 80015e6:	f7ff bf53 	b.w	8001490 <__sflush_r>
 80015ea:	9101      	str	r1, [sp, #4]
 80015ec:	f7ff f85e 	bl	80006ac <__sinit>
 80015f0:	9901      	ldr	r1, [sp, #4]
 80015f2:	e7ef      	b.n	80015d4 <_fflush_r+0xc>

080015f4 <fflush>:
 80015f4:	b1a0      	cbz	r0, 8001620 <fflush+0x2c>
 80015f6:	b538      	push	{r3, r4, r5, lr}
 80015f8:	4b0c      	ldr	r3, [pc, #48]	@ (800162c <fflush+0x38>)
 80015fa:	681d      	ldr	r5, [r3, #0]
 80015fc:	4604      	mov	r4, r0
 80015fe:	b10d      	cbz	r5, 8001604 <fflush+0x10>
 8001600:	6b6b      	ldr	r3, [r5, #52]	@ 0x34
 8001602:	b14b      	cbz	r3, 8001618 <fflush+0x24>
 8001604:	f9b4 000c 	ldrsh.w	r0, [r4, #12]
 8001608:	b900      	cbnz	r0, 800160c <fflush+0x18>
 800160a:	bd38      	pop	{r3, r4, r5, pc}
 800160c:	4621      	mov	r1, r4
 800160e:	4628      	mov	r0, r5
 8001610:	e8bd 4038 	ldmia.w	sp!, {r3, r4, r5, lr}
 8001614:	f7ff bf3c 	b.w	8001490 <__sflush_r>
 8001618:	4628      	mov	r0, r5
 800161a:	f7ff f847 	bl	80006ac <__sinit>
 800161e:	e7f1      	b.n	8001604 <fflush+0x10>
 8001620:	4a03      	ldr	r2, [pc, #12]	@ (8001630 <fflush+0x3c>)
 8001622:	4904      	ldr	r1, [pc, #16]	@ (8001634 <fflush+0x40>)
 8001624:	4804      	ldr	r0, [pc, #16]	@ (8001638 <fflush+0x44>)
 8001626:	f000 b831 	b.w	800168c <_fwalk_sglue>
 800162a:	bf00      	nop
 800162c:	20000420 			@ <UNDEFINED> instruction: 20000420
 8001630:	20000000 			@ <UNDEFINED> instruction: 20000000
 8001634:	080015c9 			@ <UNDEFINED> instruction: 080015c9
 8001638:	20000428 			@ <UNDEFINED> instruction: 20000428

0800163c <__libc_init_array>:
 800163c:	b570      	push	{r4, r5, r6, lr}
 800163e:	4b0f      	ldr	r3, [pc, #60]	@ (800167c <__libc_init_array+0x40>)
 8001640:	4d0f      	ldr	r5, [pc, #60]	@ (8001680 <__libc_init_array+0x44>)
 8001642:	42ab      	cmp	r3, r5
 8001644:	eba3 0605 	sub.w	r6, r3, r5
 8001648:	d007      	beq.n	800165a <__libc_init_array+0x1e>
 800164a:	10b6      	asrs	r6, r6, #2
 800164c:	2400      	movs	r4, #0
 800164e:	f855 3b04 	ldr.w	r3, [r5], #4
 8001652:	3401      	adds	r4, #1
 8001654:	4798      	blx	r3
 8001656:	42a6      	cmp	r6, r4
 8001658:	d8f9      	bhi.n	800164e <__libc_init_array+0x12>
 800165a:	f000 ffeb 	bl	8002634 <_init>
 800165e:	4d09      	ldr	r5, [pc, #36]	@ (8001684 <__libc_init_array+0x48>)
 8001660:	4b09      	ldr	r3, [pc, #36]	@ (8001688 <__libc_init_array+0x4c>)
 8001662:	1b5e      	subs	r6, r3, r5
 8001664:	42ab      	cmp	r3, r5
 8001666:	ea4f 06a6 	mov.w	r6, r6, asr #2
 800166a:	d006      	beq.n	800167a <__libc_init_array+0x3e>
 800166c:	2400      	movs	r4, #0
 800166e:	f855 3b04 	ldr.w	r3, [r5], #4
 8001672:	3401      	adds	r4, #1
 8001674:	4798      	blx	r3
 8001676:	42a6      	cmp	r6, r4
 8001678:	d8f9      	bhi.n	800166e <__libc_init_array+0x32>
 800167a:	bd70      	pop	{r4, r5, r6, pc}
 800167c:	08002678 			@ <UNDEFINED> instruction: 08002678
 8001680:	08002678 			@ <UNDEFINED> instruction: 08002678
 8001684:	08002678 			@ <UNDEFINED> instruction: 08002678
 8001688:	08002680 			@ <UNDEFINED> instruction: 08002680

0800168c <_fwalk_sglue>:
 800168c:	e92d 43f8 	stmdb	sp!, {r3, r4, r5, r6, r7, r8, r9, lr}
 8001690:	4607      	mov	r7, r0
 8001692:	4688      	mov	r8, r1
 8001694:	4616      	mov	r6, r2
 8001696:	f04f 0900 	mov.w	r9, #0
 800169a:	e9d6 5401 	ldrd	r5, r4, [r6, #4]
 800169e:	3d01      	subs	r5, #1
 80016a0:	d410      	bmi.n	80016c4 <_fwalk_sglue+0x38>
 80016a2:	89a3      	ldrh	r3, [r4, #12]
 80016a4:	2b01      	cmp	r3, #1
 80016a6:	d908      	bls.n	80016ba <_fwalk_sglue+0x2e>
 80016a8:	f9b4 300e 	ldrsh.w	r3, [r4, #14]
 80016ac:	3301      	adds	r3, #1
 80016ae:	4621      	mov	r1, r4
 80016b0:	4638      	mov	r0, r7
 80016b2:	d002      	beq.n	80016ba <_fwalk_sglue+0x2e>
 80016b4:	47c0      	blx	r8
 80016b6:	ea49 0900 	orr.w	r9, r9, r0
 80016ba:	3d01      	subs	r5, #1
 80016bc:	1c6b      	adds	r3, r5, #1
 80016be:	f104 0468 	add.w	r4, r4, #104	@ 0x68
 80016c2:	d1ee      	bne.n	80016a2 <_fwalk_sglue+0x16>
 80016c4:	6836      	ldr	r6, [r6, #0]
 80016c6:	2e00      	cmp	r6, #0
 80016c8:	d1e7      	bne.n	800169a <_fwalk_sglue+0xe>
 80016ca:	4648      	mov	r0, r9
 80016cc:	e8bd 83f8 	ldmia.w	sp!, {r3, r4, r5, r6, r7, r8, r9, pc}

080016d0 <memmove>:
 80016d0:	4288      	cmp	r0, r1
 80016d2:	d90e      	bls.n	80016f2 <memmove+0x22>
 80016d4:	188b      	adds	r3, r1, r2
 80016d6:	4283      	cmp	r3, r0
 80016d8:	d90b      	bls.n	80016f2 <memmove+0x22>
 80016da:	eb00 0c02 	add.w	ip, r0, r2
 80016de:	2a00      	cmp	r2, #0
 80016e0:	d06e      	beq.n	80017c0 <memmove+0xf0>
 80016e2:	4662      	mov	r2, ip
 80016e4:	f813 cd01 	ldrb.w	ip, [r3, #-1]!
 80016e8:	f802 cd01 	strb.w	ip, [r2, #-1]!
 80016ec:	4299      	cmp	r1, r3
 80016ee:	d1f9      	bne.n	80016e4 <memmove+0x14>
 80016f0:	4770      	bx	lr
 80016f2:	2a0f      	cmp	r2, #15
 80016f4:	d80f      	bhi.n	8001716 <memmove+0x46>
 80016f6:	4603      	mov	r3, r0
 80016f8:	f102 3cff 	add.w	ip, r2, #4294967295	@ 0xffffffff
 80016fc:	2a00      	cmp	r2, #0
 80016fe:	d05f      	beq.n	80017c0 <memmove+0xf0>
 8001700:	f10c 0c01 	add.w	ip, ip, #1
 8001704:	3b01      	subs	r3, #1
 8001706:	448c      	add	ip, r1
 8001708:	f811 2b01 	ldrb.w	r2, [r1], #1
 800170c:	f803 2f01 	strb.w	r2, [r3, #1]!
 8001710:	4561      	cmp	r1, ip
 8001712:	d1f9      	bne.n	8001708 <memmove+0x38>
 8001714:	4770      	bx	lr
 8001716:	ea40 0301 	orr.w	r3, r0, r1
 800171a:	079b      	lsls	r3, r3, #30
 800171c:	d151      	bne.n	80017c2 <memmove+0xf2>
 800171e:	f1a2 0310 	sub.w	r3, r2, #16
 8001722:	b570      	push	{r4, r5, r6, lr}
 8001724:	f101 0c20 	add.w	ip, r1, #32
 8001728:	f023 050f 	bic.w	r5, r3, #15
 800172c:	f101 0e10 	add.w	lr, r1, #16
 8001730:	f100 0410 	add.w	r4, r0, #16
 8001734:	44ac      	add	ip, r5
 8001736:	091b      	lsrs	r3, r3, #4
 8001738:	f85e 5c10 	ldr.w	r5, [lr, #-16]
 800173c:	f844 5c10 	str.w	r5, [r4, #-16]
 8001740:	f85e 5c0c 	ldr.w	r5, [lr, #-12]
 8001744:	f844 5c0c 	str.w	r5, [r4, #-12]
 8001748:	f85e 5c08 	ldr.w	r5, [lr, #-8]
 800174c:	f844 5c08 	str.w	r5, [r4, #-8]
 8001750:	f85e 5c04 	ldr.w	r5, [lr, #-4]
 8001754:	f844 5c04 	str.w	r5, [r4, #-4]
 8001758:	f10e 0e10 	add.w	lr, lr, #16
 800175c:	45e6      	cmp	lr, ip
 800175e:	f104 0410 	add.w	r4, r4, #16
 8001762:	d1e9      	bne.n	8001738 <memmove+0x68>
 8001764:	3301      	adds	r3, #1
 8001766:	f012 0f0c 	tst.w	r2, #12
 800176a:	eb01 1103 	add.w	r1, r1, r3, lsl #4
 800176e:	f002 040f 	and.w	r4, r2, #15
 8001772:	eb00 1303 	add.w	r3, r0, r3, lsl #4
 8001776:	d028      	beq.n	80017ca <memmove+0xfa>
 8001778:	3c04      	subs	r4, #4
 800177a:	f024 0603 	bic.w	r6, r4, #3
 800177e:	ea4f 0c94 	mov.w	ip, r4, lsr #2
 8001782:	441e      	add	r6, r3
 8001784:	1f1c      	subs	r4, r3, #4
 8001786:	468e      	mov	lr, r1
 8001788:	f85e 5b04 	ldr.w	r5, [lr], #4
 800178c:	f844 5f04 	str.w	r5, [r4, #4]!
 8001790:	42b4      	cmp	r4, r6
 8001792:	d1f9      	bne.n	8001788 <memmove+0xb8>
 8001794:	f10c 0401 	add.w	r4, ip, #1
 8001798:	f002 0203 	and.w	r2, r2, #3
 800179c:	eb03 0384 	add.w	r3, r3, r4, lsl #2
 80017a0:	eb01 0184 	add.w	r1, r1, r4, lsl #2
 80017a4:	f102 3cff 	add.w	ip, r2, #4294967295	@ 0xffffffff
 80017a8:	b14a      	cbz	r2, 80017be <memmove+0xee>
 80017aa:	f10c 0c01 	add.w	ip, ip, #1
 80017ae:	3b01      	subs	r3, #1
 80017b0:	448c      	add	ip, r1
 80017b2:	f811 2b01 	ldrb.w	r2, [r1], #1
 80017b6:	f803 2f01 	strb.w	r2, [r3, #1]!
 80017ba:	4561      	cmp	r1, ip
 80017bc:	d1f9      	bne.n	80017b2 <memmove+0xe2>
 80017be:	bd70      	pop	{r4, r5, r6, pc}
 80017c0:	4770      	bx	lr
 80017c2:	f102 3cff 	add.w	ip, r2, #4294967295	@ 0xffffffff
 80017c6:	4603      	mov	r3, r0
 80017c8:	e79a      	b.n	8001700 <memmove+0x30>
 80017ca:	4622      	mov	r2, r4
 80017cc:	e7ea      	b.n	80017a4 <memmove+0xd4>
 80017ce:	bf00      	nop

080017d0 <sysconf>:
 80017d0:	2808      	cmp	r0, #8
 80017d2:	d102      	bne.n	80017da <sysconf+0xa>
 80017d4:	f44f 5080 	mov.w	r0, #4096	@ 0x1000
 80017d8:	4770      	bx	lr
 80017da:	b508      	push	{r3, lr}
 80017dc:	f000 f8ba 	bl	8001954 <__errno>
 80017e0:	2316      	movs	r3, #22
 80017e2:	6003      	str	r3, [r0, #0]
 80017e4:	f04f 30ff 	mov.w	r0, #4294967295	@ 0xffffffff
 80017e8:	bd08      	pop	{r3, pc}
 80017ea:	bf00      	nop
 80017ec:	0000      	movs	r0, r0
	...

080017f0 <memchr>:
 80017f0:	f001 01ff 	and.w	r1, r1, #255	@ 0xff
 80017f4:	2a10      	cmp	r2, #16
 80017f6:	db2b      	blt.n	8001850 <memchr+0x60>
 80017f8:	f010 0f07 	tst.w	r0, #7
 80017fc:	d008      	beq.n	8001810 <memchr+0x20>
 80017fe:	f810 3b01 	ldrb.w	r3, [r0], #1
 8001802:	3a01      	subs	r2, #1
 8001804:	428b      	cmp	r3, r1
 8001806:	d02d      	beq.n	8001864 <memchr+0x74>
 8001808:	f010 0f07 	tst.w	r0, #7
 800180c:	b342      	cbz	r2, 8001860 <memchr+0x70>
 800180e:	d1f6      	bne.n	80017fe <memchr+0xe>
 8001810:	b4f0      	push	{r4, r5, r6, r7}
 8001812:	ea41 2101 	orr.w	r1, r1, r1, lsl #8
 8001816:	ea41 4101 	orr.w	r1, r1, r1, lsl #16
 800181a:	f022 0407 	bic.w	r4, r2, #7
 800181e:	f07f 0700 	mvns.w	r7, #0
 8001822:	2300      	movs	r3, #0
 8001824:	e8f0 5602 	ldrd	r5, r6, [r0], #8
 8001828:	3c08      	subs	r4, #8
 800182a:	ea85 0501 	eor.w	r5, r5, r1
 800182e:	ea86 0601 	eor.w	r6, r6, r1
 8001832:	fa85 f547 	uadd8	r5, r5, r7
 8001836:	faa3 f587 	sel	r5, r3, r7
 800183a:	fa86 f647 	uadd8	r6, r6, r7
 800183e:	faa5 f687 	sel	r6, r5, r7
 8001842:	b98e      	cbnz	r6, 8001868 <memchr+0x78>
 8001844:	d1ee      	bne.n	8001824 <memchr+0x34>
 8001846:	bcf0      	pop	{r4, r5, r6, r7}
 8001848:	f001 01ff 	and.w	r1, r1, #255	@ 0xff
 800184c:	f002 0207 	and.w	r2, r2, #7
 8001850:	b132      	cbz	r2, 8001860 <memchr+0x70>
 8001852:	f810 3b01 	ldrb.w	r3, [r0], #1
 8001856:	3a01      	subs	r2, #1
 8001858:	ea83 0301 	eor.w	r3, r3, r1
 800185c:	b113      	cbz	r3, 8001864 <memchr+0x74>
 800185e:	d1f8      	bne.n	8001852 <memchr+0x62>
 8001860:	2000      	movs	r0, #0
 8001862:	4770      	bx	lr
 8001864:	3801      	subs	r0, #1
 8001866:	4770      	bx	lr
 8001868:	2d00      	cmp	r5, #0
 800186a:	bf06      	itte	eq
 800186c:	4635      	moveq	r5, r6
 800186e:	3803      	subeq	r0, #3
 8001870:	3807      	subne	r0, #7
 8001872:	f015 0f01 	tst.w	r5, #1
 8001876:	d107      	bne.n	8001888 <memchr+0x98>
 8001878:	3001      	adds	r0, #1
 800187a:	f415 7f80 	tst.w	r5, #256	@ 0x100
 800187e:	bf02      	ittt	eq
 8001880:	3001      	addeq	r0, #1
 8001882:	f415 3fc0 	tsteq.w	r5, #98304	@ 0x18000
 8001886:	3001      	addeq	r0, #1
 8001888:	bcf0      	pop	{r4, r5, r6, r7}
 800188a:	3801      	subs	r0, #1
 800188c:	4770      	bx	lr
 800188e:	bf00      	nop

08001890 <__swsetup_r>:
 8001890:	b538      	push	{r3, r4, r5, lr}
 8001892:	4b2f      	ldr	r3, [pc, #188]	@ (8001950 <__swsetup_r+0xc0>)
 8001894:	681b      	ldr	r3, [r3, #0]
 8001896:	4605      	mov	r5, r0
 8001898:	460c      	mov	r4, r1
 800189a:	b113      	cbz	r3, 80018a2 <__swsetup_r+0x12>
 800189c:	6b5a      	ldr	r2, [r3, #52]	@ 0x34
 800189e:	2a00      	cmp	r2, #0
 80018a0:	d04b      	beq.n	800193a <__swsetup_r+0xaa>
 80018a2:	f9b4 300c 	ldrsh.w	r3, [r4, #12]
 80018a6:	0718      	lsls	r0, r3, #28
 80018a8:	d51c      	bpl.n	80018e4 <__swsetup_r+0x54>
 80018aa:	6922      	ldr	r2, [r4, #16]
 80018ac:	b322      	cbz	r2, 80018f8 <__swsetup_r+0x68>
 80018ae:	f013 0101 	ands.w	r1, r3, #1
 80018b2:	d007      	beq.n	80018c4 <__swsetup_r+0x34>
 80018b4:	6961      	ldr	r1, [r4, #20]
 80018b6:	2000      	movs	r0, #0
 80018b8:	4249      	negs	r1, r1
 80018ba:	60a0      	str	r0, [r4, #8]
 80018bc:	61a1      	str	r1, [r4, #24]
 80018be:	b13a      	cbz	r2, 80018d0 <__swsetup_r+0x40>
 80018c0:	2000      	movs	r0, #0
 80018c2:	bd38      	pop	{r3, r4, r5, pc}
 80018c4:	0798      	lsls	r0, r3, #30
 80018c6:	bf58      	it	pl
 80018c8:	6961      	ldrpl	r1, [r4, #20]
 80018ca:	60a1      	str	r1, [r4, #8]
 80018cc:	2a00      	cmp	r2, #0
 80018ce:	d1f7      	bne.n	80018c0 <__swsetup_r+0x30>
 80018d0:	0619      	lsls	r1, r3, #24
 80018d2:	bf58      	it	pl
 80018d4:	4610      	movpl	r0, r2
 80018d6:	d5f4      	bpl.n	80018c2 <__swsetup_r+0x32>
 80018d8:	f043 0340 	orr.w	r3, r3, #64	@ 0x40
 80018dc:	81a3      	strh	r3, [r4, #12]
 80018de:	f04f 30ff 	mov.w	r0, #4294967295	@ 0xffffffff
 80018e2:	bd38      	pop	{r3, r4, r5, pc}
 80018e4:	06d9      	lsls	r1, r3, #27
 80018e6:	d52c      	bpl.n	8001942 <__swsetup_r+0xb2>
 80018e8:	075a      	lsls	r2, r3, #29
 80018ea:	d412      	bmi.n	8001912 <__swsetup_r+0x82>
 80018ec:	6922      	ldr	r2, [r4, #16]
 80018ee:	f043 0308 	orr.w	r3, r3, #8
 80018f2:	81a3      	strh	r3, [r4, #12]
 80018f4:	2a00      	cmp	r2, #0
 80018f6:	d1da      	bne.n	80018ae <__swsetup_r+0x1e>
 80018f8:	f403 7120 	and.w	r1, r3, #640	@ 0x280
 80018fc:	f5b1 7f00 	cmp.w	r1, #512	@ 0x200
 8001900:	d0d5      	beq.n	80018ae <__swsetup_r+0x1e>
 8001902:	4621      	mov	r1, r4
 8001904:	4628      	mov	r0, r5
 8001906:	f000 fa53 	bl	8001db0 <__smakebuf_r>
 800190a:	f9b4 300c 	ldrsh.w	r3, [r4, #12]
 800190e:	6922      	ldr	r2, [r4, #16]
 8001910:	e7cd      	b.n	80018ae <__swsetup_r+0x1e>
 8001912:	6b21      	ldr	r1, [r4, #48]	@ 0x30
 8001914:	b151      	cbz	r1, 800192c <__swsetup_r+0x9c>
 8001916:	f104 0240 	add.w	r2, r4, #64	@ 0x40
 800191a:	4291      	cmp	r1, r2
 800191c:	d004      	beq.n	8001928 <__swsetup_r+0x98>
 800191e:	4628      	mov	r0, r5
 8001920:	f7ff fa3a 	bl	8000d98 <_free_r>
 8001924:	f9b4 300c 	ldrsh.w	r3, [r4, #12]
 8001928:	2200      	movs	r2, #0
 800192a:	6322      	str	r2, [r4, #48]	@ 0x30
 800192c:	6922      	ldr	r2, [r4, #16]
 800192e:	2100      	movs	r1, #0
 8001930:	e9c4 2100 	strd	r2, r1, [r4]
 8001934:	f023 0324 	bic.w	r3, r3, #36	@ 0x24
 8001938:	e7d9      	b.n	80018ee <__swsetup_r+0x5e>
 800193a:	4618      	mov	r0, r3
 800193c:	f7fe feb6 	bl	80006ac <__sinit>
 8001940:	e7af      	b.n	80018a2 <__swsetup_r+0x12>
 8001942:	2209      	movs	r2, #9
 8001944:	f043 0340 	orr.w	r3, r3, #64	@ 0x40
 8001948:	602a      	str	r2, [r5, #0]
 800194a:	81a3      	strh	r3, [r4, #12]
 800194c:	e7c7      	b.n	80018de <__swsetup_r+0x4e>
 800194e:	bf00      	nop
 8001950:	20000420 			@ <UNDEFINED> instruction: 20000420

08001954 <__errno>:
 8001954:	4b01      	ldr	r3, [pc, #4]	@ (800195c <__errno+0x8>)
 8001956:	6818      	ldr	r0, [r3, #0]
 8001958:	4770      	bx	lr
 800195a:	bf00      	nop
 800195c:	20000420 			@ <UNDEFINED> instruction: 20000420

08001960 <_write_r>:
 8001960:	b538      	push	{r3, r4, r5, lr}
 8001962:	460c      	mov	r4, r1
 8001964:	4d08      	ldr	r5, [pc, #32]	@ (8001988 <_write_r+0x28>)
 8001966:	4684      	mov	ip, r0
 8001968:	4611      	mov	r1, r2
 800196a:	4620      	mov	r0, r4
 800196c:	461a      	mov	r2, r3
 800196e:	2300      	movs	r3, #0
 8001970:	602b      	str	r3, [r5, #0]
 8001972:	4664      	mov	r4, ip
 8001974:	f000 fb5f 	bl	8002036 <_write>
 8001978:	1c43      	adds	r3, r0, #1
 800197a:	d000      	beq.n	800197e <_write_r+0x1e>
 800197c:	bd38      	pop	{r3, r4, r5, pc}
 800197e:	682b      	ldr	r3, [r5, #0]
 8001980:	2b00      	cmp	r3, #0
 8001982:	d0fb      	beq.n	800197c <_write_r+0x1c>
 8001984:	6023      	str	r3, [r4, #0]
 8001986:	bd38      	pop	{r3, r4, r5, pc}
 8001988:	200006f8 	strdcs	r0, [r0], -r8

0800198c <_close_r>:
 800198c:	b538      	push	{r3, r4, r5, lr}
 800198e:	4d07      	ldr	r5, [pc, #28]	@ (80019ac <_close_r+0x20>)
 8001990:	2200      	movs	r2, #0
 8001992:	4604      	mov	r4, r0
 8001994:	4608      	mov	r0, r1
 8001996:	602a      	str	r2, [r5, #0]
 8001998:	f000 fb57 	bl	800204a <_close>
 800199c:	1c43      	adds	r3, r0, #1
 800199e:	d000      	beq.n	80019a2 <_close_r+0x16>
 80019a0:	bd38      	pop	{r3, r4, r5, pc}
 80019a2:	682b      	ldr	r3, [r5, #0]
 80019a4:	2b00      	cmp	r3, #0
 80019a6:	d0fb      	beq.n	80019a0 <_close_r+0x14>
 80019a8:	6023      	str	r3, [r4, #0]
 80019aa:	bd38      	pop	{r3, r4, r5, pc}
 80019ac:	200006f8 	strdcs	r0, [r0], -r8

080019b0 <_lseek_r>:
 80019b0:	b538      	push	{r3, r4, r5, lr}
 80019b2:	460c      	mov	r4, r1
 80019b4:	4d08      	ldr	r5, [pc, #32]	@ (80019d8 <_lseek_r+0x28>)
 80019b6:	4684      	mov	ip, r0
 80019b8:	4611      	mov	r1, r2
 80019ba:	4620      	mov	r0, r4
 80019bc:	461a      	mov	r2, r3
 80019be:	2300      	movs	r3, #0
 80019c0:	602b      	str	r3, [r5, #0]
 80019c2:	4664      	mov	r4, ip
 80019c4:	f000 fb44 	bl	8002050 <_lseek>
 80019c8:	1c43      	adds	r3, r0, #1
 80019ca:	d000      	beq.n	80019ce <_lseek_r+0x1e>
 80019cc:	bd38      	pop	{r3, r4, r5, pc}
 80019ce:	682b      	ldr	r3, [r5, #0]
 80019d0:	2b00      	cmp	r3, #0
 80019d2:	d0fb      	beq.n	80019cc <_lseek_r+0x1c>
 80019d4:	6023      	str	r3, [r4, #0]
 80019d6:	bd38      	pop	{r3, r4, r5, pc}
 80019d8:	200006f8 	strdcs	r0, [r0], -r8

080019dc <__register_exitproc>:
 80019dc:	b470      	push	{r4, r5, r6}
 80019de:	4d16      	ldr	r5, [pc, #88]	@ (8001a38 <__register_exitproc+0x5c>)
 80019e0:	682c      	ldr	r4, [r5, #0]
 80019e2:	b31c      	cbz	r4, 8001a2c <__register_exitproc+0x50>
 80019e4:	6865      	ldr	r5, [r4, #4]
 80019e6:	2d1f      	cmp	r5, #31
 80019e8:	dc23      	bgt.n	8001a32 <__register_exitproc+0x56>
 80019ea:	b938      	cbnz	r0, 80019fc <__register_exitproc+0x20>
 80019ec:	1cab      	adds	r3, r5, #2
 80019ee:	3501      	adds	r5, #1
 80019f0:	6065      	str	r5, [r4, #4]
 80019f2:	f844 1023 	str.w	r1, [r4, r3, lsl #2]
 80019f6:	2000      	movs	r0, #0
 80019f8:	bc70      	pop	{r4, r5, r6}
 80019fa:	4770      	bx	lr
 80019fc:	eb04 0c85 	add.w	ip, r4, r5, lsl #2
 8001a00:	2802      	cmp	r0, #2
 8001a02:	f8cc 2088 	str.w	r2, [ip, #136]	@ 0x88
 8001a06:	f8d4 6188 	ldr.w	r6, [r4, #392]	@ 0x188
 8001a0a:	f04f 0201 	mov.w	r2, #1
 8001a0e:	fa02 f205 	lsl.w	r2, r2, r5
 8001a12:	ea46 0602 	orr.w	r6, r6, r2
 8001a16:	f8c4 6188 	str.w	r6, [r4, #392]	@ 0x188
 8001a1a:	f8cc 3108 	str.w	r3, [ip, #264]	@ 0x108
 8001a1e:	d1e5      	bne.n	80019ec <__register_exitproc+0x10>
 8001a20:	f8d4 318c 	ldr.w	r3, [r4, #396]	@ 0x18c
 8001a24:	4313      	orrs	r3, r2
 8001a26:	f8c4 318c 	str.w	r3, [r4, #396]	@ 0x18c
 8001a2a:	e7df      	b.n	80019ec <__register_exitproc+0x10>
 8001a2c:	4c03      	ldr	r4, [pc, #12]	@ (8001a3c <__register_exitproc+0x60>)
 8001a2e:	602c      	str	r4, [r5, #0]
 8001a30:	e7d8      	b.n	80019e4 <__register_exitproc+0x8>
 8001a32:	f04f 30ff 	mov.w	r0, #4294967295	@ 0xffffffff
 8001a36:	e7df      	b.n	80019f8 <__register_exitproc+0x1c>
 8001a38:	200006fc 	strdcs	r0, [r0], -ip
 8001a3c:	20000700 			@ <UNDEFINED> instruction: 20000700

08001a40 <_realloc_r>:
 8001a40:	e92d 4ff8 	stmdb	sp!, {r3, r4, r5, r6, r7, r8, r9, sl, fp, lr}
 8001a44:	4616      	mov	r6, r2
 8001a46:	2900      	cmp	r1, #0
 8001a48:	f000 8096 	beq.w	8001b78 <_realloc_r+0x138>
 8001a4c:	460c      	mov	r4, r1
 8001a4e:	4680      	mov	r8, r0
 8001a50:	f106 050b 	add.w	r5, r6, #11
 8001a54:	f7ff fa9c 	bl	8000f90 <__malloc_lock>
 8001a58:	f854 1c04 	ldr.w	r1, [r4, #-4]
 8001a5c:	2d16      	cmp	r5, #22
 8001a5e:	f1a4 0908 	sub.w	r9, r4, #8
 8001a62:	f021 0703 	bic.w	r7, r1, #3
 8001a66:	d858      	bhi.n	8001b1a <_realloc_r+0xda>
 8001a68:	2510      	movs	r5, #16
 8001a6a:	42ae      	cmp	r6, r5
 8001a6c:	d858      	bhi.n	8001b20 <_realloc_r+0xe0>
 8001a6e:	42af      	cmp	r7, r5
 8001a70:	da60      	bge.n	8001b34 <_realloc_r+0xf4>
 8001a72:	4bbe      	ldr	r3, [pc, #760]	@ (8001d6c <_realloc_r+0x32c>)
 8001a74:	689a      	ldr	r2, [r3, #8]
 8001a76:	eb09 0c07 	add.w	ip, r9, r7
 8001a7a:	4562      	cmp	r2, ip
 8001a7c:	f8dc 0004 	ldr.w	r0, [ip, #4]
 8001a80:	f000 8090 	beq.w	8001ba4 <_realloc_r+0x164>
 8001a84:	f020 0301 	bic.w	r3, r0, #1
 8001a88:	4463      	add	r3, ip
 8001a8a:	685b      	ldr	r3, [r3, #4]
 8001a8c:	07db      	lsls	r3, r3, #31
 8001a8e:	d468      	bmi.n	8001b62 <_realloc_r+0x122>
 8001a90:	f020 0003 	bic.w	r0, r0, #3
 8001a94:	183b      	adds	r3, r7, r0
 8001a96:	429d      	cmp	r5, r3
 8001a98:	dd47      	ble.n	8001b2a <_realloc_r+0xea>
 8001a9a:	07cb      	lsls	r3, r1, #31
 8001a9c:	d412      	bmi.n	8001ac4 <_realloc_r+0x84>
 8001a9e:	f854 3c08 	ldr.w	r3, [r4, #-8]
 8001aa2:	eba9 0b03 	sub.w	fp, r9, r3
 8001aa6:	f8db 3004 	ldr.w	r3, [fp, #4]
 8001aaa:	f023 0203 	bic.w	r2, r3, #3
 8001aae:	4410      	add	r0, r2
 8001ab0:	eb00 0a07 	add.w	sl, r0, r7
 8001ab4:	4555      	cmp	r5, sl
 8001ab6:	f340 80f6 	ble.w	8001ca6 <_realloc_r+0x266>
 8001aba:	eb07 0a02 	add.w	sl, r7, r2
 8001abe:	4555      	cmp	r5, sl
 8001ac0:	f340 80cc 	ble.w	8001c5c <_realloc_r+0x21c>
 8001ac4:	4631      	mov	r1, r6
 8001ac6:	4640      	mov	r0, r8
 8001ac8:	f7fe fe60 	bl	800078c <_malloc_r>
 8001acc:	4606      	mov	r6, r0
 8001ace:	2800      	cmp	r0, #0
 8001ad0:	f000 8120 	beq.w	8001d14 <_realloc_r+0x2d4>
 8001ad4:	f854 3c04 	ldr.w	r3, [r4, #-4]
 8001ad8:	f023 0301 	bic.w	r3, r3, #1
 8001adc:	444b      	add	r3, r9
 8001ade:	f1a0 0208 	sub.w	r2, r0, #8
 8001ae2:	4293      	cmp	r3, r2
 8001ae4:	f000 80b4 	beq.w	8001c50 <_realloc_r+0x210>
 8001ae8:	1f3a      	subs	r2, r7, #4
 8001aea:	2a24      	cmp	r2, #36	@ 0x24
 8001aec:	f200 80d7 	bhi.w	8001c9e <_realloc_r+0x25e>
 8001af0:	2a13      	cmp	r2, #19
 8001af2:	f200 80a2 	bhi.w	8001c3a <_realloc_r+0x1fa>
 8001af6:	4603      	mov	r3, r0
 8001af8:	4622      	mov	r2, r4
 8001afa:	6811      	ldr	r1, [r2, #0]
 8001afc:	6019      	str	r1, [r3, #0]
 8001afe:	6851      	ldr	r1, [r2, #4]
 8001b00:	6059      	str	r1, [r3, #4]
 8001b02:	6892      	ldr	r2, [r2, #8]
 8001b04:	609a      	str	r2, [r3, #8]
 8001b06:	4621      	mov	r1, r4
 8001b08:	4640      	mov	r0, r8
 8001b0a:	f7ff f945 	bl	8000d98 <_free_r>
 8001b0e:	4640      	mov	r0, r8
 8001b10:	f7ff fa40 	bl	8000f94 <__malloc_unlock>
 8001b14:	4630      	mov	r0, r6
 8001b16:	e8bd 8ff8 	ldmia.w	sp!, {r3, r4, r5, r6, r7, r8, r9, sl, fp, pc}
 8001b1a:	f035 0507 	bics.w	r5, r5, #7
 8001b1e:	d5a4      	bpl.n	8001a6a <_realloc_r+0x2a>
 8001b20:	230c      	movs	r3, #12
 8001b22:	f8c8 3000 	str.w	r3, [r8]
 8001b26:	2600      	movs	r6, #0
 8001b28:	e018      	b.n	8001b5c <_realloc_r+0x11c>
 8001b2a:	461f      	mov	r7, r3
 8001b2c:	e9dc 2302 	ldrd	r2, r3, [ip, #8]
 8001b30:	60d3      	str	r3, [r2, #12]
 8001b32:	609a      	str	r2, [r3, #8]
 8001b34:	f8d9 3004 	ldr.w	r3, [r9, #4]
 8001b38:	1b7a      	subs	r2, r7, r5
 8001b3a:	2a0f      	cmp	r2, #15
 8001b3c:	f003 0301 	and.w	r3, r3, #1
 8001b40:	eb09 0007 	add.w	r0, r9, r7
 8001b44:	d81d      	bhi.n	8001b82 <_realloc_r+0x142>
 8001b46:	433b      	orrs	r3, r7
 8001b48:	f8c9 3004 	str.w	r3, [r9, #4]
 8001b4c:	6843      	ldr	r3, [r0, #4]
 8001b4e:	f043 0301 	orr.w	r3, r3, #1
 8001b52:	6043      	str	r3, [r0, #4]
 8001b54:	4640      	mov	r0, r8
 8001b56:	f7ff fa1d 	bl	8000f94 <__malloc_unlock>
 8001b5a:	4626      	mov	r6, r4
 8001b5c:	4630      	mov	r0, r6
 8001b5e:	e8bd 8ff8 	ldmia.w	sp!, {r3, r4, r5, r6, r7, r8, r9, sl, fp, pc}
 8001b62:	07c9      	lsls	r1, r1, #31
 8001b64:	d4ae      	bmi.n	8001ac4 <_realloc_r+0x84>
 8001b66:	f854 3c08 	ldr.w	r3, [r4, #-8]
 8001b6a:	eba9 0b03 	sub.w	fp, r9, r3
 8001b6e:	f8db 3004 	ldr.w	r3, [fp, #4]
 8001b72:	f023 0203 	bic.w	r2, r3, #3
 8001b76:	e7a0      	b.n	8001aba <_realloc_r+0x7a>
 8001b78:	e8bd 4ff8 	ldmia.w	sp!, {r3, r4, r5, r6, r7, r8, r9, sl, fp, lr}
 8001b7c:	4611      	mov	r1, r2
 8001b7e:	f7fe be05 	b.w	800078c <_malloc_r>
 8001b82:	eb09 0105 	add.w	r1, r9, r5
 8001b86:	432b      	orrs	r3, r5
 8001b88:	f042 0201 	orr.w	r2, r2, #1
 8001b8c:	f8c9 3004 	str.w	r3, [r9, #4]
 8001b90:	604a      	str	r2, [r1, #4]
 8001b92:	6843      	ldr	r3, [r0, #4]
 8001b94:	f043 0301 	orr.w	r3, r3, #1
 8001b98:	6043      	str	r3, [r0, #4]
 8001b9a:	3108      	adds	r1, #8
 8001b9c:	4640      	mov	r0, r8
 8001b9e:	f7ff f8fb 	bl	8000d98 <_free_r>
 8001ba2:	e7d7      	b.n	8001b54 <_realloc_r+0x114>
 8001ba4:	f020 0003 	bic.w	r0, r0, #3
 8001ba8:	19c2      	adds	r2, r0, r7
 8001baa:	f105 0c10 	add.w	ip, r5, #16
 8001bae:	4562      	cmp	r2, ip
 8001bb0:	f280 8091 	bge.w	8001cd6 <_realloc_r+0x296>
 8001bb4:	07ca      	lsls	r2, r1, #31
 8001bb6:	d485      	bmi.n	8001ac4 <_realloc_r+0x84>
 8001bb8:	f854 2c08 	ldr.w	r2, [r4, #-8]
 8001bbc:	eba9 0b02 	sub.w	fp, r9, r2
 8001bc0:	f8db 2004 	ldr.w	r2, [fp, #4]
 8001bc4:	f022 0203 	bic.w	r2, r2, #3
 8001bc8:	4410      	add	r0, r2
 8001bca:	eb00 0a07 	add.w	sl, r0, r7
 8001bce:	45d4      	cmp	ip, sl
 8001bd0:	f73f af73 	bgt.w	8001aba <_realloc_r+0x7a>
 8001bd4:	465e      	mov	r6, fp
 8001bd6:	f8db 100c 	ldr.w	r1, [fp, #12]
 8001bda:	f856 0f08 	ldr.w	r0, [r6, #8]!
 8001bde:	1f3a      	subs	r2, r7, #4
 8001be0:	2a24      	cmp	r2, #36	@ 0x24
 8001be2:	60c1      	str	r1, [r0, #12]
 8001be4:	6088      	str	r0, [r1, #8]
 8001be6:	f200 80ae 	bhi.w	8001d46 <_realloc_r+0x306>
 8001bea:	2a13      	cmp	r2, #19
 8001bec:	f240 80a9 	bls.w	8001d42 <_realloc_r+0x302>
 8001bf0:	6821      	ldr	r1, [r4, #0]
 8001bf2:	f8cb 1008 	str.w	r1, [fp, #8]
 8001bf6:	6861      	ldr	r1, [r4, #4]
 8001bf8:	f8cb 100c 	str.w	r1, [fp, #12]
 8001bfc:	2a1b      	cmp	r2, #27
 8001bfe:	f200 80a8 	bhi.w	8001d52 <_realloc_r+0x312>
 8001c02:	3408      	adds	r4, #8
 8001c04:	f10b 0210 	add.w	r2, fp, #16
 8001c08:	6821      	ldr	r1, [r4, #0]
 8001c0a:	6011      	str	r1, [r2, #0]
 8001c0c:	6861      	ldr	r1, [r4, #4]
 8001c0e:	6051      	str	r1, [r2, #4]
 8001c10:	68a1      	ldr	r1, [r4, #8]
 8001c12:	6091      	str	r1, [r2, #8]
 8001c14:	eb0b 0105 	add.w	r1, fp, r5
 8001c18:	ebaa 0205 	sub.w	r2, sl, r5
 8001c1c:	f042 0201 	orr.w	r2, r2, #1
 8001c20:	6099      	str	r1, [r3, #8]
 8001c22:	604a      	str	r2, [r1, #4]
 8001c24:	f8db 3004 	ldr.w	r3, [fp, #4]
 8001c28:	f003 0301 	and.w	r3, r3, #1
 8001c2c:	432b      	orrs	r3, r5
 8001c2e:	4640      	mov	r0, r8
 8001c30:	f8cb 3004 	str.w	r3, [fp, #4]
 8001c34:	f7ff f9ae 	bl	8000f94 <__malloc_unlock>
 8001c38:	e790      	b.n	8001b5c <_realloc_r+0x11c>
 8001c3a:	6823      	ldr	r3, [r4, #0]
 8001c3c:	6003      	str	r3, [r0, #0]
 8001c3e:	6863      	ldr	r3, [r4, #4]
 8001c40:	6043      	str	r3, [r0, #4]
 8001c42:	2a1b      	cmp	r2, #27
 8001c44:	d83c      	bhi.n	8001cc0 <_realloc_r+0x280>
 8001c46:	f104 0208 	add.w	r2, r4, #8
 8001c4a:	f100 0308 	add.w	r3, r0, #8
 8001c4e:	e754      	b.n	8001afa <_realloc_r+0xba>
 8001c50:	f850 3c04 	ldr.w	r3, [r0, #-4]
 8001c54:	f023 0303 	bic.w	r3, r3, #3
 8001c58:	441f      	add	r7, r3
 8001c5a:	e76b      	b.n	8001b34 <_realloc_r+0xf4>
 8001c5c:	1f3a      	subs	r2, r7, #4
 8001c5e:	465e      	mov	r6, fp
 8001c60:	f8db 300c 	ldr.w	r3, [fp, #12]
 8001c64:	f856 1f08 	ldr.w	r1, [r6, #8]!
 8001c68:	2a24      	cmp	r2, #36	@ 0x24
 8001c6a:	60cb      	str	r3, [r1, #12]
 8001c6c:	6099      	str	r1, [r3, #8]
 8001c6e:	d822      	bhi.n	8001cb6 <_realloc_r+0x276>
 8001c70:	2a13      	cmp	r2, #19
 8001c72:	d91e      	bls.n	8001cb2 <_realloc_r+0x272>
 8001c74:	6823      	ldr	r3, [r4, #0]
 8001c76:	f8cb 3008 	str.w	r3, [fp, #8]
 8001c7a:	6863      	ldr	r3, [r4, #4]
 8001c7c:	f8cb 300c 	str.w	r3, [fp, #12]
 8001c80:	2a1b      	cmp	r2, #27
 8001c82:	d83b      	bhi.n	8001cfc <_realloc_r+0x2bc>
 8001c84:	3408      	adds	r4, #8
 8001c86:	f10b 0310 	add.w	r3, fp, #16
 8001c8a:	6822      	ldr	r2, [r4, #0]
 8001c8c:	601a      	str	r2, [r3, #0]
 8001c8e:	6862      	ldr	r2, [r4, #4]
 8001c90:	605a      	str	r2, [r3, #4]
 8001c92:	68a2      	ldr	r2, [r4, #8]
 8001c94:	609a      	str	r2, [r3, #8]
 8001c96:	4634      	mov	r4, r6
 8001c98:	4657      	mov	r7, sl
 8001c9a:	46d9      	mov	r9, fp
 8001c9c:	e74a      	b.n	8001b34 <_realloc_r+0xf4>
 8001c9e:	4621      	mov	r1, r4
 8001ca0:	f7ff fd16 	bl	80016d0 <memmove>
 8001ca4:	e72f      	b.n	8001b06 <_realloc_r+0xc6>
 8001ca6:	e9dc 1302 	ldrd	r1, r3, [ip, #8]
 8001caa:	1f3a      	subs	r2, r7, #4
 8001cac:	60cb      	str	r3, [r1, #12]
 8001cae:	6099      	str	r1, [r3, #8]
 8001cb0:	e7d5      	b.n	8001c5e <_realloc_r+0x21e>
 8001cb2:	4633      	mov	r3, r6
 8001cb4:	e7e9      	b.n	8001c8a <_realloc_r+0x24a>
 8001cb6:	4621      	mov	r1, r4
 8001cb8:	4630      	mov	r0, r6
 8001cba:	f7ff fd09 	bl	80016d0 <memmove>
 8001cbe:	e7ea      	b.n	8001c96 <_realloc_r+0x256>
 8001cc0:	68a3      	ldr	r3, [r4, #8]
 8001cc2:	6083      	str	r3, [r0, #8]
 8001cc4:	68e3      	ldr	r3, [r4, #12]
 8001cc6:	60c3      	str	r3, [r0, #12]
 8001cc8:	2a24      	cmp	r2, #36	@ 0x24
 8001cca:	d027      	beq.n	8001d1c <_realloc_r+0x2dc>
 8001ccc:	f104 0210 	add.w	r2, r4, #16
 8001cd0:	f100 0310 	add.w	r3, r0, #16
 8001cd4:	e711      	b.n	8001afa <_realloc_r+0xba>
 8001cd6:	eb09 0105 	add.w	r1, r9, r5
 8001cda:	6099      	str	r1, [r3, #8]
 8001cdc:	1b53      	subs	r3, r2, r5
 8001cde:	f043 0301 	orr.w	r3, r3, #1
 8001ce2:	604b      	str	r3, [r1, #4]
 8001ce4:	f854 3c04 	ldr.w	r3, [r4, #-4]
 8001ce8:	f003 0301 	and.w	r3, r3, #1
 8001cec:	432b      	orrs	r3, r5
 8001cee:	4640      	mov	r0, r8
 8001cf0:	f844 3c04 	str.w	r3, [r4, #-4]
 8001cf4:	f7ff f94e 	bl	8000f94 <__malloc_unlock>
 8001cf8:	4626      	mov	r6, r4
 8001cfa:	e72f      	b.n	8001b5c <_realloc_r+0x11c>
 8001cfc:	68a3      	ldr	r3, [r4, #8]
 8001cfe:	f8cb 3010 	str.w	r3, [fp, #16]
 8001d02:	68e3      	ldr	r3, [r4, #12]
 8001d04:	f8cb 3014 	str.w	r3, [fp, #20]
 8001d08:	2a24      	cmp	r2, #36	@ 0x24
 8001d0a:	d010      	beq.n	8001d2e <_realloc_r+0x2ee>
 8001d0c:	3410      	adds	r4, #16
 8001d0e:	f10b 0318 	add.w	r3, fp, #24
 8001d12:	e7ba      	b.n	8001c8a <_realloc_r+0x24a>
 8001d14:	4640      	mov	r0, r8
 8001d16:	f7ff f93d 	bl	8000f94 <__malloc_unlock>
 8001d1a:	e704      	b.n	8001b26 <_realloc_r+0xe6>
 8001d1c:	6923      	ldr	r3, [r4, #16]
 8001d1e:	6103      	str	r3, [r0, #16]
 8001d20:	6961      	ldr	r1, [r4, #20]
 8001d22:	6141      	str	r1, [r0, #20]
 8001d24:	f104 0218 	add.w	r2, r4, #24
 8001d28:	f100 0318 	add.w	r3, r0, #24
 8001d2c:	e6e5      	b.n	8001afa <_realloc_r+0xba>
 8001d2e:	6923      	ldr	r3, [r4, #16]
 8001d30:	f8cb 3018 	str.w	r3, [fp, #24]
 8001d34:	6963      	ldr	r3, [r4, #20]
 8001d36:	f8cb 301c 	str.w	r3, [fp, #28]
 8001d3a:	3418      	adds	r4, #24
 8001d3c:	f10b 0320 	add.w	r3, fp, #32
 8001d40:	e7a3      	b.n	8001c8a <_realloc_r+0x24a>
 8001d42:	4632      	mov	r2, r6
 8001d44:	e760      	b.n	8001c08 <_realloc_r+0x1c8>
 8001d46:	4621      	mov	r1, r4
 8001d48:	4630      	mov	r0, r6
 8001d4a:	f7ff fcc1 	bl	80016d0 <memmove>
 8001d4e:	4b07      	ldr	r3, [pc, #28]	@ (8001d6c <_realloc_r+0x32c>)
 8001d50:	e760      	b.n	8001c14 <_realloc_r+0x1d4>
 8001d52:	68a1      	ldr	r1, [r4, #8]
 8001d54:	f8cb 1010 	str.w	r1, [fp, #16]
 8001d58:	68e1      	ldr	r1, [r4, #12]
 8001d5a:	f8cb 1014 	str.w	r1, [fp, #20]
 8001d5e:	2a24      	cmp	r2, #36	@ 0x24
 8001d60:	d006      	beq.n	8001d70 <_realloc_r+0x330>
 8001d62:	3410      	adds	r4, #16
 8001d64:	f10b 0218 	add.w	r2, fp, #24
 8001d68:	e74e      	b.n	8001c08 <_realloc_r+0x1c8>
 8001d6a:	bf00      	nop
 8001d6c:	20000010 			@ <UNDEFINED> instruction: 20000010
 8001d70:	6922      	ldr	r2, [r4, #16]
 8001d72:	f8cb 2018 	str.w	r2, [fp, #24]
 8001d76:	6962      	ldr	r2, [r4, #20]
 8001d78:	f8cb 201c 	str.w	r2, [fp, #28]
 8001d7c:	3418      	adds	r4, #24
 8001d7e:	f10b 0220 	add.w	r2, fp, #32
 8001d82:	e741      	b.n	8001c08 <_realloc_r+0x1c8>

08001d84 <_read_r>:
 8001d84:	b538      	push	{r3, r4, r5, lr}
 8001d86:	460c      	mov	r4, r1
 8001d88:	4d08      	ldr	r5, [pc, #32]	@ (8001dac <_read_r+0x28>)
 8001d8a:	4684      	mov	ip, r0
 8001d8c:	4611      	mov	r1, r2
 8001d8e:	4620      	mov	r0, r4
 8001d90:	461a      	mov	r2, r3
 8001d92:	2300      	movs	r3, #0
 8001d94:	602b      	str	r3, [r5, #0]
 8001d96:	4664      	mov	r4, ip
 8001d98:	f000 f955 	bl	8002046 <_read>
 8001d9c:	1c43      	adds	r3, r0, #1
 8001d9e:	d000      	beq.n	8001da2 <_read_r+0x1e>
 8001da0:	bd38      	pop	{r3, r4, r5, pc}
 8001da2:	682b      	ldr	r3, [r5, #0]
 8001da4:	2b00      	cmp	r3, #0
 8001da6:	d0fb      	beq.n	8001da0 <_read_r+0x1c>
 8001da8:	6023      	str	r3, [r4, #0]
 8001daa:	bd38      	pop	{r3, r4, r5, pc}
 8001dac:	200006f8 	strdcs	r0, [r0], -r8

08001db0 <__smakebuf_r>:
 8001db0:	e92d 41f0 	stmdb	sp!, {r4, r5, r6, r7, r8, lr}
 8001db4:	f9b1 300c 	ldrsh.w	r3, [r1, #12]
 8001db8:	460c      	mov	r4, r1
 8001dba:	0799      	lsls	r1, r3, #30
 8001dbc:	b096      	sub	sp, #88	@ 0x58
 8001dbe:	d508      	bpl.n	8001dd2 <__smakebuf_r+0x22>
 8001dc0:	f104 0343 	add.w	r3, r4, #67	@ 0x43
 8001dc4:	2201      	movs	r2, #1
 8001dc6:	e9c4 3204 	strd	r3, r2, [r4, #16]
 8001dca:	6023      	str	r3, [r4, #0]
 8001dcc:	b016      	add	sp, #88	@ 0x58
 8001dce:	e8bd 81f0 	ldmia.w	sp!, {r4, r5, r6, r7, r8, pc}
 8001dd2:	f9b4 100e 	ldrsh.w	r1, [r4, #14]
 8001dd6:	2900      	cmp	r1, #0
 8001dd8:	4606      	mov	r6, r0
 8001dda:	db26      	blt.n	8001e2a <__smakebuf_r+0x7a>
 8001ddc:	466a      	mov	r2, sp
 8001dde:	f000 f885 	bl	8001eec <_fstat_r>
 8001de2:	2800      	cmp	r0, #0
 8001de4:	db1f      	blt.n	8001e26 <__smakebuf_r+0x76>
 8001de6:	9d01      	ldr	r5, [sp, #4]
 8001de8:	f405 4570 	and.w	r5, r5, #61440	@ 0xf000
 8001dec:	f5a5 5500 	sub.w	r5, r5, #8192	@ 0x2000
 8001df0:	fab5 f585 	clz	r5, r5
 8001df4:	f44f 6880 	mov.w	r8, #1024	@ 0x400
 8001df8:	096d      	lsrs	r5, r5, #5
 8001dfa:	f44f 6700 	mov.w	r7, #2048	@ 0x800
 8001dfe:	4641      	mov	r1, r8
 8001e00:	4630      	mov	r0, r6
 8001e02:	f7fe fcc3 	bl	800078c <_malloc_r>
 8001e06:	b1e8      	cbz	r0, 8001e44 <__smakebuf_r+0x94>
 8001e08:	f9b4 300c 	ldrsh.w	r3, [r4, #12]
 8001e0c:	f8c4 8014 	str.w	r8, [r4, #20]
 8001e10:	f043 0380 	orr.w	r3, r3, #128	@ 0x80
 8001e14:	6020      	str	r0, [r4, #0]
 8001e16:	6120      	str	r0, [r4, #16]
 8001e18:	81a3      	strh	r3, [r4, #12]
 8001e1a:	bb3d      	cbnz	r5, 8001e6c <__smakebuf_r+0xbc>
 8001e1c:	433b      	orrs	r3, r7
 8001e1e:	81a3      	strh	r3, [r4, #12]
 8001e20:	b016      	add	sp, #88	@ 0x58
 8001e22:	e8bd 81f0 	ldmia.w	sp!, {r4, r5, r6, r7, r8, pc}
 8001e26:	f9b4 300c 	ldrsh.w	r3, [r4, #12]
 8001e2a:	f013 0580 	ands.w	r5, r3, #128	@ 0x80
 8001e2e:	d019      	beq.n	8001e64 <__smakebuf_r+0xb4>
 8001e30:	f04f 0840 	mov.w	r8, #64	@ 0x40
 8001e34:	2500      	movs	r5, #0
 8001e36:	4641      	mov	r1, r8
 8001e38:	4630      	mov	r0, r6
 8001e3a:	462f      	mov	r7, r5
 8001e3c:	f7fe fca6 	bl	800078c <_malloc_r>
 8001e40:	2800      	cmp	r0, #0
 8001e42:	d1e1      	bne.n	8001e08 <__smakebuf_r+0x58>
 8001e44:	f9b4 300c 	ldrsh.w	r3, [r4, #12]
 8001e48:	059a      	lsls	r2, r3, #22
 8001e4a:	d4bf      	bmi.n	8001dcc <__smakebuf_r+0x1c>
 8001e4c:	f023 0303 	bic.w	r3, r3, #3
 8001e50:	f104 0243 	add.w	r2, r4, #67	@ 0x43
 8001e54:	f043 0302 	orr.w	r3, r3, #2
 8001e58:	2101      	movs	r1, #1
 8001e5a:	e9c4 2104 	strd	r2, r1, [r4, #16]
 8001e5e:	81a3      	strh	r3, [r4, #12]
 8001e60:	6022      	str	r2, [r4, #0]
 8001e62:	e7b3      	b.n	8001dcc <__smakebuf_r+0x1c>
 8001e64:	f44f 6880 	mov.w	r8, #1024	@ 0x400
 8001e68:	462f      	mov	r7, r5
 8001e6a:	e7c8      	b.n	8001dfe <__smakebuf_r+0x4e>
 8001e6c:	f9b4 100e 	ldrsh.w	r1, [r4, #14]
 8001e70:	4630      	mov	r0, r6
 8001e72:	f000 f851 	bl	8001f18 <_isatty_r>
 8001e76:	b910      	cbnz	r0, 8001e7e <__smakebuf_r+0xce>
 8001e78:	f9b4 300c 	ldrsh.w	r3, [r4, #12]
 8001e7c:	e7ce      	b.n	8001e1c <__smakebuf_r+0x6c>
 8001e7e:	89a3      	ldrh	r3, [r4, #12]
 8001e80:	f023 0303 	bic.w	r3, r3, #3
 8001e84:	f043 0301 	orr.w	r3, r3, #1
 8001e88:	b21b      	sxth	r3, r3
 8001e8a:	e7c7      	b.n	8001e1c <__smakebuf_r+0x6c>

08001e8c <__swhatbuf_r>:
 8001e8c:	b570      	push	{r4, r5, r6, lr}
 8001e8e:	460c      	mov	r4, r1
 8001e90:	f9b1 100e 	ldrsh.w	r1, [r1, #14]
 8001e94:	2900      	cmp	r1, #0
 8001e96:	b096      	sub	sp, #88	@ 0x58
 8001e98:	4615      	mov	r5, r2
 8001e9a:	461e      	mov	r6, r3
 8001e9c:	db14      	blt.n	8001ec8 <__swhatbuf_r+0x3c>
 8001e9e:	466a      	mov	r2, sp
 8001ea0:	f000 f824 	bl	8001eec <_fstat_r>
 8001ea4:	2800      	cmp	r0, #0
 8001ea6:	db0f      	blt.n	8001ec8 <__swhatbuf_r+0x3c>
 8001ea8:	9901      	ldr	r1, [sp, #4]
 8001eaa:	f401 4170 	and.w	r1, r1, #61440	@ 0xf000
 8001eae:	f5a1 5100 	sub.w	r1, r1, #8192	@ 0x2000
 8001eb2:	fab1 f181 	clz	r1, r1
 8001eb6:	f44f 6380 	mov.w	r3, #1024	@ 0x400
 8001eba:	0949      	lsrs	r1, r1, #5
 8001ebc:	f44f 6000 	mov.w	r0, #2048	@ 0x800
 8001ec0:	6031      	str	r1, [r6, #0]
 8001ec2:	602b      	str	r3, [r5, #0]
 8001ec4:	b016      	add	sp, #88	@ 0x58
 8001ec6:	bd70      	pop	{r4, r5, r6, pc}
 8001ec8:	89a1      	ldrh	r1, [r4, #12]
 8001eca:	f011 0180 	ands.w	r1, r1, #128	@ 0x80
 8001ece:	d006      	beq.n	8001ede <__swhatbuf_r+0x52>
 8001ed0:	2100      	movs	r1, #0
 8001ed2:	2340      	movs	r3, #64	@ 0x40
 8001ed4:	4608      	mov	r0, r1
 8001ed6:	6031      	str	r1, [r6, #0]
 8001ed8:	602b      	str	r3, [r5, #0]
 8001eda:	b016      	add	sp, #88	@ 0x58
 8001edc:	bd70      	pop	{r4, r5, r6, pc}
 8001ede:	f44f 6380 	mov.w	r3, #1024	@ 0x400
 8001ee2:	4608      	mov	r0, r1
 8001ee4:	6031      	str	r1, [r6, #0]
 8001ee6:	602b      	str	r3, [r5, #0]
 8001ee8:	b016      	add	sp, #88	@ 0x58
 8001eea:	bd70      	pop	{r4, r5, r6, pc}

08001eec <_fstat_r>:
 8001eec:	b570      	push	{r4, r5, r6, lr}
 8001eee:	460c      	mov	r4, r1
 8001ef0:	4d08      	ldr	r5, [pc, #32]	@ (8001f14 <_fstat_r+0x28>)
 8001ef2:	4603      	mov	r3, r0
 8001ef4:	2600      	movs	r6, #0
 8001ef6:	4620      	mov	r0, r4
 8001ef8:	4611      	mov	r1, r2
 8001efa:	461c      	mov	r4, r3
 8001efc:	602e      	str	r6, [r5, #0]
 8001efe:	f000 f8a9 	bl	8002054 <_fstat>
 8001f02:	1c43      	adds	r3, r0, #1
 8001f04:	d000      	beq.n	8001f08 <_fstat_r+0x1c>
 8001f06:	bd70      	pop	{r4, r5, r6, pc}
 8001f08:	682b      	ldr	r3, [r5, #0]
 8001f0a:	2b00      	cmp	r3, #0
 8001f0c:	d0fb      	beq.n	8001f06 <_fstat_r+0x1a>
 8001f0e:	6023      	str	r3, [r4, #0]
 8001f10:	bd70      	pop	{r4, r5, r6, pc}
 8001f12:	bf00      	nop
 8001f14:	200006f8 	strdcs	r0, [r0], -r8

08001f18 <_isatty_r>:
 8001f18:	b538      	push	{r3, r4, r5, lr}
 8001f1a:	4d07      	ldr	r5, [pc, #28]	@ (8001f38 <_isatty_r+0x20>)
 8001f1c:	2200      	movs	r2, #0
 8001f1e:	4604      	mov	r4, r0
 8001f20:	4608      	mov	r0, r1
 8001f22:	602a      	str	r2, [r5, #0]
 8001f24:	f000 f89b 	bl	800205e <_isatty>
 8001f28:	1c43      	adds	r3, r0, #1
 8001f2a:	d000      	beq.n	8001f2e <_isatty_r+0x16>
 8001f2c:	bd38      	pop	{r3, r4, r5, pc}
 8001f2e:	682b      	ldr	r3, [r5, #0]
 8001f30:	2b00      	cmp	r3, #0
 8001f32:	d0fb      	beq.n	8001f2c <_isatty_r+0x14>
 8001f34:	6023      	str	r3, [r4, #0]
 8001f36:	bd38      	pop	{r3, r4, r5, pc}
 8001f38:	200006f8 	strdcs	r0, [r0], -r8

08001f3c <_sbrk>:
 8001f3c:	4a04      	ldr	r2, [pc, #16]	@ (8001f50 <_sbrk+0x14>)
 8001f3e:	4905      	ldr	r1, [pc, #20]	@ (8001f54 <_sbrk+0x18>)
 8001f40:	6813      	ldr	r3, [r2, #0]
 8001f42:	2b00      	cmp	r3, #0
 8001f44:	bf08      	it	eq
 8001f46:	460b      	moveq	r3, r1
 8001f48:	4418      	add	r0, r3
 8001f4a:	6010      	str	r0, [r2, #0]
 8001f4c:	4618      	mov	r0, r3
 8001f4e:	4770      	bx	lr
 8001f50:	20000890 			@ <UNDEFINED> instruction: 20000890
 8001f54:	20000898 			@ <UNDEFINED> instruction: 20000898

08001f58 <SystemInit>:
 8001f58:	4a03      	ldr	r2, [pc, #12]	@ (8001f68 <SystemInit+0x10>)
 8001f5a:	f8d2 3088 	ldr.w	r3, [r2, #136]	@ 0x88
 8001f5e:	f443 0370 	orr.w	r3, r3, #15728640	@ 0xf00000
 8001f62:	f8c2 3088 	str.w	r3, [r2, #136]	@ 0x88
 8001f66:	4770      	bx	lr
 8001f68:	e000ed00 			@ <UNDEFINED> instruction: e000ed00

08001f6c <SystemCoreClockUpdate>:
 8001f6c:	4818      	ldr	r0, [pc, #96]	@ (8001fd0 <SystemCoreClockUpdate+0x64>)
 8001f6e:	6883      	ldr	r3, [r0, #8]
 8001f70:	f003 030c 	and.w	r3, r3, #12
 8001f74:	2b08      	cmp	r3, #8
 8001f76:	b510      	push	{r4, lr}
 8001f78:	4c16      	ldr	r4, [pc, #88]	@ (8001fd4 <SystemCoreClockUpdate+0x68>)
 8001f7a:	d00e      	beq.n	8001f9a <SystemCoreClockUpdate+0x2e>
 8001f7c:	2b0c      	cmp	r3, #12
 8001f7e:	d00e      	beq.n	8001f9e <SystemCoreClockUpdate+0x32>
 8001f80:	2b04      	cmp	r3, #4
 8001f82:	d101      	bne.n	8001f88 <SystemCoreClockUpdate+0x1c>
 8001f84:	4b14      	ldr	r3, [pc, #80]	@ (8001fd8 <SystemCoreClockUpdate+0x6c>)
 8001f86:	6023      	str	r3, [r4, #0]
 8001f88:	6883      	ldr	r3, [r0, #8]
 8001f8a:	4a14      	ldr	r2, [pc, #80]	@ (8001fdc <SystemCoreClockUpdate+0x70>)
 8001f8c:	f3c3 1303 	ubfx	r3, r3, #4, #4
 8001f90:	5cd2      	ldrb	r2, [r2, r3]
 8001f92:	6823      	ldr	r3, [r4, #0]
 8001f94:	40d3      	lsrs	r3, r2
 8001f96:	6023      	str	r3, [r4, #0]
 8001f98:	bd10      	pop	{r4, pc}
 8001f9a:	4b11      	ldr	r3, [pc, #68]	@ (8001fe0 <SystemCoreClockUpdate+0x74>)
 8001f9c:	e7f3      	b.n	8001f86 <SystemCoreClockUpdate+0x1a>
 8001f9e:	68c2      	ldr	r2, [r0, #12]
 8001fa0:	68c3      	ldr	r3, [r0, #12]
 8001fa2:	f002 0203 	and.w	r2, r2, #3
 8001fa6:	2a02      	cmp	r2, #2
 8001fa8:	f3c3 1303 	ubfx	r3, r3, #4, #4
 8001fac:	bf0c      	ite	eq
 8001fae:	4a0a      	ldreq	r2, [pc, #40]	@ (8001fd8 <SystemCoreClockUpdate+0x6c>)
 8001fb0:	4a0b      	ldrne	r2, [pc, #44]	@ (8001fe0 <SystemCoreClockUpdate+0x74>)
 8001fb2:	3301      	adds	r3, #1
 8001fb4:	fbb2 f3f3 	udiv	r3, r2, r3
 8001fb8:	68c2      	ldr	r2, [r0, #12]
 8001fba:	68c1      	ldr	r1, [r0, #12]
 8001fbc:	f3c2 2206 	ubfx	r2, r2, #8, #7
 8001fc0:	4353      	muls	r3, r2
 8001fc2:	f3c1 6241 	ubfx	r2, r1, #25, #2
 8001fc6:	3201      	adds	r2, #1
 8001fc8:	0052      	lsls	r2, r2, #1
 8001fca:	fbb3 f3f2 	udiv	r3, r3, r2
 8001fce:	e7da      	b.n	8001f86 <SystemCoreClockUpdate+0x1a>
 8001fd0:	40021000 			@ <UNDEFINED> instruction: 40021000
 8001fd4:	20000568 			@ <UNDEFINED> instruction: 20000568
 8001fd8:	00f42400 			@ <UNDEFINED> instruction: 00f42400
 8001fdc:	0800264c 			@ <UNDEFINED> instruction: 0800264c
 8001fe0:	016e3600 			@ <UNDEFINED> instruction: 016e3600

08001fe4 <Reset_Handler>:
 8001fe4:	480d      	ldr	r0, [pc, #52]	@ (800201c <LoopForever+0x2>)
 8001fe6:	4685      	mov	sp, r0
 8001fe8:	f7ff ffb6 	bl	8001f58 <SystemInit>
 8001fec:	480c      	ldr	r0, [pc, #48]	@ (8002020 <LoopForever+0x6>)
 8001fee:	490d      	ldr	r1, [pc, #52]	@ (8002024 <LoopForever+0xa>)
 8001ff0:	4a0d      	ldr	r2, [pc, #52]	@ (8002028 <LoopForever+0xe>)
 8001ff2:	2300      	movs	r3, #0
 8001ff4:	e002      	b.n	8001ffc <LoopCopyDataInit>

08001ff6 <CopyDataInit>:
 8001ff6:	58d4      	ldr	r4, [r2, r3]
 8001ff8:	50c4      	str	r4, [r0, r3]
 8001ffa:	3304      	adds	r3, #4

08001ffc <LoopCopyDataInit>:
 8001ffc:	18c4      	adds	r4, r0, r3
 8001ffe:	428c      	cmp	r4, r1
 8002000:	d3f9      	bcc.n	8001ff6 <CopyDataInit>
 8002002:	4a0a      	ldr	r2, [pc, #40]	@ (800202c <LoopForever+0x12>)
 8002004:	4c0a      	ldr	r4, [pc, #40]	@ (8002030 <LoopForever+0x16>)
 8002006:	2300      	movs	r3, #0
 8002008:	e001      	b.n	800200e <LoopFillZerobss>

0800200a <FillZerobss>:
 800200a:	6013      	str	r3, [r2, #0]
 800200c:	3204      	adds	r2, #4

0800200e <LoopFillZerobss>:
 800200e:	42a2      	cmp	r2, r4
 8002010:	d3fb      	bcc.n	800200a <FillZerobss>
 8002012:	f7ff fb13 	bl	800163c <__libc_init_array>
 8002016:	f000 faa7 	bl	8002568 <main>

0800201a <LoopForever>:
 800201a:	e7fe      	b.n	800201a <LoopForever>
 800201c:	20020000 			@ <UNDEFINED> instruction: 20020000
 8002020:	20000000 			@ <UNDEFINED> instruction: 20000000
 8002024:	2000056c 			@ <UNDEFINED> instruction: 2000056c
 8002028:	08002684 			@ <UNDEFINED> instruction: 08002684
 800202c:	2000056c 			@ <UNDEFINED> instruction: 2000056c
 8002030:	20000898 			@ <UNDEFINED> instruction: 20000898

08002034 <ADC1_2_IRQHandler>:
 8002034:	e7fe      	b.n	8002034 <ADC1_2_IRQHandler>

08002036 <_write>:
 8002036:	b510      	push	{r4, lr}
 8002038:	4608      	mov	r0, r1
 800203a:	4614      	mov	r4, r2
 800203c:	b291      	uxth	r1, r2
 800203e:	f000 fa87 	bl	8002550 <uart_puts>
 8002042:	4620      	mov	r0, r4
 8002044:	bd10      	pop	{r4, pc}

08002046 <_read>:
 8002046:	2000      	movs	r0, #0
 8002048:	4770      	bx	lr

0800204a <_close>:
 800204a:	f04f 30ff 	mov.w	r0, #4294967295	@ 0xffffffff
 800204e:	4770      	bx	lr

08002050 <_lseek>:
 8002050:	2000      	movs	r0, #0
 8002052:	4770      	bx	lr

08002054 <_fstat>:
 8002054:	f44f 5300 	mov.w	r3, #8192	@ 0x2000
 8002058:	604b      	str	r3, [r1, #4]
 800205a:	2000      	movs	r0, #0
 800205c:	4770      	bx	lr

0800205e <_isatty>:
 800205e:	2001      	movs	r0, #1
 8002060:	4770      	bx	lr
	...

08002064 <clocks_init>:
 8002064:	4b25      	ldr	r3, [pc, #148]	@ (80020fc <clocks_init+0x98>)
 8002066:	681a      	ldr	r2, [r3, #0]
 8002068:	f442 3280 	orr.w	r2, r2, #65536	@ 0x10000
 800206c:	b082      	sub	sp, #8
 800206e:	601a      	str	r2, [r3, #0]
 8002070:	681a      	ldr	r2, [r3, #0]
 8002072:	0391      	lsls	r1, r2, #14
 8002074:	d5fc      	bpl.n	8002070 <clocks_init+0xc>
 8002076:	681a      	ldr	r2, [r3, #0]
 8002078:	f022 7280 	bic.w	r2, r2, #16777216	@ 0x1000000
 800207c:	601a      	str	r2, [r3, #0]
 800207e:	681a      	ldr	r2, [r3, #0]
 8002080:	4a1f      	ldr	r2, [pc, #124]	@ (8002100 <clocks_init+0x9c>)
 8002082:	60da      	str	r2, [r3, #12]
 8002084:	681a      	ldr	r2, [r3, #0]
 8002086:	f042 7280 	orr.w	r2, r2, #16777216	@ 0x1000000
 800208a:	601a      	str	r2, [r3, #0]
 800208c:	681a      	ldr	r2, [r3, #0]
 800208e:	0192      	lsls	r2, r2, #6
 8002090:	d5fc      	bpl.n	800208c <clocks_init+0x28>
 8002092:	491c      	ldr	r1, [pc, #112]	@ (8002104 <clocks_init+0xa0>)
 8002094:	680a      	ldr	r2, [r1, #0]
 8002096:	f022 020f 	bic.w	r2, r2, #15
 800209a:	f042 0204 	orr.w	r2, r2, #4
 800209e:	600a      	str	r2, [r1, #0]
 80020a0:	680a      	ldr	r2, [r1, #0]
 80020a2:	f002 020f 	and.w	r2, r2, #15
 80020a6:	2a04      	cmp	r2, #4
 80020a8:	d1fa      	bne.n	80020a0 <clocks_init+0x3c>
 80020aa:	689a      	ldr	r2, [r3, #8]
 80020ac:	f022 02f0 	bic.w	r2, r2, #240	@ 0xf0
 80020b0:	f042 0280 	orr.w	r2, r2, #128	@ 0x80
 80020b4:	609a      	str	r2, [r3, #8]
 80020b6:	689a      	ldr	r2, [r3, #8]
 80020b8:	f002 02f0 	and.w	r2, r2, #240	@ 0xf0
 80020bc:	2a80      	cmp	r2, #128	@ 0x80
 80020be:	d1fa      	bne.n	80020b6 <clocks_init+0x52>
 80020c0:	689a      	ldr	r2, [r3, #8]
 80020c2:	f042 0203 	orr.w	r2, r2, #3
 80020c6:	609a      	str	r2, [r3, #8]
 80020c8:	689a      	ldr	r2, [r3, #8]
 80020ca:	f002 020c 	and.w	r2, r2, #12
 80020ce:	2a0c      	cmp	r2, #12
 80020d0:	d1fa      	bne.n	80020c8 <clocks_init+0x64>
 80020d2:	2200      	movs	r2, #0
 80020d4:	9201      	str	r2, [sp, #4]
 80020d6:	9a01      	ldr	r2, [sp, #4]
 80020d8:	2a63      	cmp	r2, #99	@ 0x63
 80020da:	d90a      	bls.n	80020f2 <clocks_init+0x8e>
 80020dc:	689a      	ldr	r2, [r3, #8]
 80020de:	f022 02f0 	bic.w	r2, r2, #240	@ 0xf0
 80020e2:	609a      	str	r2, [r3, #8]
 80020e4:	689a      	ldr	r2, [r3, #8]
 80020e6:	f012 0ff0 	tst.w	r2, #240	@ 0xf0
 80020ea:	d1fb      	bne.n	80020e4 <clocks_init+0x80>
 80020ec:	b002      	add	sp, #8
 80020ee:	f7ff bf3d 	b.w	8001f6c <SystemCoreClockUpdate>
 80020f2:	bf00      	nop
 80020f4:	9a01      	ldr	r2, [sp, #4]
 80020f6:	3201      	adds	r2, #1
 80020f8:	e7ec      	b.n	80020d4 <clocks_init+0x70>
 80020fa:	bf00      	nop
 80020fc:	40021000 			@ <UNDEFINED> instruction: 40021000
 8002100:	11114b53 			@ <UNDEFINED> instruction: 11114b53
 8002104:	40022000 			@ <UNDEFINED> instruction: 40022000

08002108 <delay_ms>:
 8002108:	4a03      	ldr	r2, [pc, #12]	@ (8002118 <delay_ms+0x10>)
 800210a:	6811      	ldr	r1, [r2, #0]
 800210c:	6813      	ldr	r3, [r2, #0]
 800210e:	1a5b      	subs	r3, r3, r1
 8002110:	4283      	cmp	r3, r0
 8002112:	d3fb      	bcc.n	800210c <delay_ms+0x4>
 8002114:	4770      	bx	lr
 8002116:	bf00      	nop
 8002118:	20000894 			@ <UNDEFINED> instruction: 20000894

0800211c <gpio_init>:
 800211c:	4b0f      	ldr	r3, [pc, #60]	@ (800215c <gpio_init+0x40>)
 800211e:	6cda      	ldr	r2, [r3, #76]	@ 0x4c
 8002120:	f042 0201 	orr.w	r2, r2, #1
 8002124:	64da      	str	r2, [r3, #76]	@ 0x4c
 8002126:	6cda      	ldr	r2, [r3, #76]	@ 0x4c
 8002128:	f042 0202 	orr.w	r2, r2, #2
 800212c:	64da      	str	r2, [r3, #76]	@ 0x4c
 800212e:	6cda      	ldr	r2, [r3, #76]	@ 0x4c
 8002130:	f042 0204 	orr.w	r2, r2, #4
 8002134:	64da      	str	r2, [r3, #76]	@ 0x4c
 8002136:	6cda      	ldr	r2, [r3, #76]	@ 0x4c
 8002138:	f042 0208 	orr.w	r2, r2, #8
 800213c:	64da      	str	r2, [r3, #76]	@ 0x4c
 800213e:	6cda      	ldr	r2, [r3, #76]	@ 0x4c
 8002140:	f042 0210 	orr.w	r2, r2, #16
 8002144:	64da      	str	r2, [r3, #76]	@ 0x4c
 8002146:	6cda      	ldr	r2, [r3, #76]	@ 0x4c
 8002148:	f042 0220 	orr.w	r2, r2, #32
 800214c:	64da      	str	r2, [r3, #76]	@ 0x4c
 800214e:	6cda      	ldr	r2, [r3, #76]	@ 0x4c
 8002150:	f042 0240 	orr.w	r2, r2, #64	@ 0x40
 8002154:	64da      	str	r2, [r3, #76]	@ 0x4c
 8002156:	f3bf 8f4f 	dsb	sy
 800215a:	4770      	bx	lr
 800215c:	40021000 			@ <UNDEFINED> instruction: 40021000

08002160 <gpio_set_output>:
 8002160:	6803      	ldr	r3, [r0, #0]
 8002162:	0049      	lsls	r1, r1, #1
 8002164:	2203      	movs	r2, #3
 8002166:	408a      	lsls	r2, r1
 8002168:	ea23 0302 	bic.w	r3, r3, r2
 800216c:	2201      	movs	r2, #1
 800216e:	408a      	lsls	r2, r1
 8002170:	4313      	orrs	r3, r2
 8002172:	6003      	str	r3, [r0, #0]
 8002174:	4770      	bx	lr

08002176 <gpio_set_input>:
 8002176:	6803      	ldr	r3, [r0, #0]
 8002178:	0049      	lsls	r1, r1, #1
 800217a:	2203      	movs	r2, #3
 800217c:	408a      	lsls	r2, r1
 800217e:	ea23 0302 	bic.w	r3, r3, r2
 8002182:	6003      	str	r3, [r0, #0]
 8002184:	4770      	bx	lr

08002186 <gpio_set_alt>:
 8002186:	290f      	cmp	r1, #15
 8002188:	b570      	push	{r4, r5, r6, lr}
 800218a:	d81a      	bhi.n	80021c2 <gpio_set_alt+0x3c>
 800218c:	b20c      	sxth	r4, r1
 800218e:	6803      	ldr	r3, [r0, #0]
 8002190:	0066      	lsls	r6, r4, #1
 8002192:	2503      	movs	r5, #3
 8002194:	40b5      	lsls	r5, r6
 8002196:	ea23 0305 	bic.w	r3, r3, r5
 800219a:	2502      	movs	r5, #2
 800219c:	40b5      	lsls	r5, r6
 800219e:	432b      	orrs	r3, r5
 80021a0:	3908      	subs	r1, #8
 80021a2:	6003      	str	r3, [r0, #0]
 80021a4:	b28b      	uxth	r3, r1
 80021a6:	2b07      	cmp	r3, #7
 80021a8:	f04f 030f 	mov.w	r3, #15
 80021ac:	d80a      	bhi.n	80021c4 <gpio_set_alt+0x3e>
 80021ae:	b209      	sxth	r1, r1
 80021b0:	6a44      	ldr	r4, [r0, #36]	@ 0x24
 80021b2:	0089      	lsls	r1, r1, #2
 80021b4:	408b      	lsls	r3, r1
 80021b6:	ea24 0303 	bic.w	r3, r4, r3
 80021ba:	fa02 f101 	lsl.w	r1, r2, r1
 80021be:	430b      	orrs	r3, r1
 80021c0:	6243      	str	r3, [r0, #36]	@ 0x24
 80021c2:	bd70      	pop	{r4, r5, r6, pc}
 80021c4:	6a01      	ldr	r1, [r0, #32]
 80021c6:	00a4      	lsls	r4, r4, #2
 80021c8:	40a3      	lsls	r3, r4
 80021ca:	ea21 0303 	bic.w	r3, r1, r3
 80021ce:	40a2      	lsls	r2, r4
 80021d0:	431a      	orrs	r2, r3
 80021d2:	6202      	str	r2, [r0, #32]
 80021d4:	e7f5      	b.n	80021c2 <gpio_set_alt+0x3c>

080021d6 <gpio_set>:
 80021d6:	6942      	ldr	r2, [r0, #20]
 80021d8:	2301      	movs	r3, #1
 80021da:	408b      	lsls	r3, r1
 80021dc:	4313      	orrs	r3, r2
 80021de:	6143      	str	r3, [r0, #20]
 80021e0:	4770      	bx	lr

080021e2 <gpio_reset>:
 80021e2:	6943      	ldr	r3, [r0, #20]
 80021e4:	2201      	movs	r2, #1
 80021e6:	408a      	lsls	r2, r1
 80021e8:	ea23 0302 	bic.w	r3, r3, r2
 80021ec:	6143      	str	r3, [r0, #20]
 80021ee:	4770      	bx	lr

080021f0 <gpio_write>:
 80021f0:	b410      	push	{r4}
 80021f2:	460c      	mov	r4, r1
 80021f4:	b13a      	cbz	r2, 8002206 <gpio_write+0x16>
 80021f6:	6942      	ldr	r2, [r0, #20]
 80021f8:	2101      	movs	r1, #1
 80021fa:	40a1      	lsls	r1, r4
 80021fc:	4311      	orrs	r1, r2
 80021fe:	f85d 4b04 	ldr.w	r4, [sp], #4
 8002202:	6141      	str	r1, [r0, #20]
 8002204:	4770      	bx	lr
 8002206:	f85d 4b04 	ldr.w	r4, [sp], #4
 800220a:	f7ff bfea 	b.w	80021e2 <gpio_reset>
	...

08002210 <lcd_set_data_bus_output>:
 8002210:	b508      	push	{r3, lr}
 8002212:	4811      	ldr	r0, [pc, #68]	@ (8002258 <lcd_set_data_bus_output+0x48>)
 8002214:	2108      	movs	r1, #8
 8002216:	f7ff ffa3 	bl	8002160 <gpio_set_output>
 800221a:	480f      	ldr	r0, [pc, #60]	@ (8002258 <lcd_set_data_bus_output+0x48>)
 800221c:	2109      	movs	r1, #9
 800221e:	f7ff ff9f 	bl	8002160 <gpio_set_output>
 8002222:	480d      	ldr	r0, [pc, #52]	@ (8002258 <lcd_set_data_bus_output+0x48>)
 8002224:	210a      	movs	r1, #10
 8002226:	f7ff ff9b 	bl	8002160 <gpio_set_output>
 800222a:	480b      	ldr	r0, [pc, #44]	@ (8002258 <lcd_set_data_bus_output+0x48>)
 800222c:	210b      	movs	r1, #11
 800222e:	f7ff ff97 	bl	8002160 <gpio_set_output>
 8002232:	4809      	ldr	r0, [pc, #36]	@ (8002258 <lcd_set_data_bus_output+0x48>)
 8002234:	210c      	movs	r1, #12
 8002236:	f7ff ff93 	bl	8002160 <gpio_set_output>
 800223a:	4807      	ldr	r0, [pc, #28]	@ (8002258 <lcd_set_data_bus_output+0x48>)
 800223c:	210d      	movs	r1, #13
 800223e:	f7ff ff8f 	bl	8002160 <gpio_set_output>
 8002242:	4805      	ldr	r0, [pc, #20]	@ (8002258 <lcd_set_data_bus_output+0x48>)
 8002244:	210e      	movs	r1, #14
 8002246:	f7ff ff8b 	bl	8002160 <gpio_set_output>
 800224a:	e8bd 4008 	ldmia.w	sp!, {r3, lr}
 800224e:	4802      	ldr	r0, [pc, #8]	@ (8002258 <lcd_set_data_bus_output+0x48>)
 8002250:	210f      	movs	r1, #15
 8002252:	f7ff bf85 	b.w	8002160 <gpio_set_output>
 8002256:	bf00      	nop
 8002258:	48000c00 			@ <UNDEFINED> instruction: 48000c00

0800225c <lcd_set_data_bus_input>:
 800225c:	b508      	push	{r3, lr}
 800225e:	4811      	ldr	r0, [pc, #68]	@ (80022a4 <lcd_set_data_bus_input+0x48>)
 8002260:	2108      	movs	r1, #8
 8002262:	f7ff ff88 	bl	8002176 <gpio_set_input>
 8002266:	480f      	ldr	r0, [pc, #60]	@ (80022a4 <lcd_set_data_bus_input+0x48>)
 8002268:	2109      	movs	r1, #9
 800226a:	f7ff ff84 	bl	8002176 <gpio_set_input>
 800226e:	480d      	ldr	r0, [pc, #52]	@ (80022a4 <lcd_set_data_bus_input+0x48>)
 8002270:	210a      	movs	r1, #10
 8002272:	f7ff ff80 	bl	8002176 <gpio_set_input>
 8002276:	480b      	ldr	r0, [pc, #44]	@ (80022a4 <lcd_set_data_bus_input+0x48>)
 8002278:	210b      	movs	r1, #11
 800227a:	f7ff ff7c 	bl	8002176 <gpio_set_input>
 800227e:	4809      	ldr	r0, [pc, #36]	@ (80022a4 <lcd_set_data_bus_input+0x48>)
 8002280:	210c      	movs	r1, #12
 8002282:	f7ff ff78 	bl	8002176 <gpio_set_input>
 8002286:	4807      	ldr	r0, [pc, #28]	@ (80022a4 <lcd_set_data_bus_input+0x48>)
 8002288:	210d      	movs	r1, #13
 800228a:	f7ff ff74 	bl	8002176 <gpio_set_input>
 800228e:	4805      	ldr	r0, [pc, #20]	@ (80022a4 <lcd_set_data_bus_input+0x48>)
 8002290:	210e      	movs	r1, #14
 8002292:	f7ff ff70 	bl	8002176 <gpio_set_input>
 8002296:	e8bd 4008 	ldmia.w	sp!, {r3, lr}
 800229a:	4802      	ldr	r0, [pc, #8]	@ (80022a4 <lcd_set_data_bus_input+0x48>)
 800229c:	210f      	movs	r1, #15
 800229e:	f7ff bf6a 	b.w	8002176 <gpio_set_input>
 80022a2:	bf00      	nop
 80022a4:	48000c00 			@ <UNDEFINED> instruction: 48000c00

080022a8 <lcd_write_data_bus>:
 80022a8:	b510      	push	{r4, lr}
 80022aa:	f000 0201 	and.w	r2, r0, #1
 80022ae:	4604      	mov	r4, r0
 80022b0:	210f      	movs	r1, #15
 80022b2:	4817      	ldr	r0, [pc, #92]	@ (8002310 <lcd_write_data_bus+0x68>)
 80022b4:	f7ff ff9c 	bl	80021f0 <gpio_write>
 80022b8:	f3c4 0240 	ubfx	r2, r4, #1, #1
 80022bc:	4814      	ldr	r0, [pc, #80]	@ (8002310 <lcd_write_data_bus+0x68>)
 80022be:	210e      	movs	r1, #14
 80022c0:	f7ff ff96 	bl	80021f0 <gpio_write>
 80022c4:	f3c4 0280 	ubfx	r2, r4, #2, #1
 80022c8:	4811      	ldr	r0, [pc, #68]	@ (8002310 <lcd_write_data_bus+0x68>)
 80022ca:	210d      	movs	r1, #13
 80022cc:	f7ff ff90 	bl	80021f0 <gpio_write>
 80022d0:	f3c4 02c0 	ubfx	r2, r4, #3, #1
 80022d4:	480e      	ldr	r0, [pc, #56]	@ (8002310 <lcd_write_data_bus+0x68>)
 80022d6:	210c      	movs	r1, #12
 80022d8:	f7ff ff8a 	bl	80021f0 <gpio_write>
 80022dc:	f3c4 1200 	ubfx	r2, r4, #4, #1
 80022e0:	480b      	ldr	r0, [pc, #44]	@ (8002310 <lcd_write_data_bus+0x68>)
 80022e2:	210b      	movs	r1, #11
 80022e4:	f7ff ff84 	bl	80021f0 <gpio_write>
 80022e8:	f3c4 1240 	ubfx	r2, r4, #5, #1
 80022ec:	4808      	ldr	r0, [pc, #32]	@ (8002310 <lcd_write_data_bus+0x68>)
 80022ee:	210a      	movs	r1, #10
 80022f0:	f7ff ff7e 	bl	80021f0 <gpio_write>
 80022f4:	f3c4 1280 	ubfx	r2, r4, #6, #1
 80022f8:	4805      	ldr	r0, [pc, #20]	@ (8002310 <lcd_write_data_bus+0x68>)
 80022fa:	2109      	movs	r1, #9
 80022fc:	f7ff ff78 	bl	80021f0 <gpio_write>
 8002300:	09e2      	lsrs	r2, r4, #7
 8002302:	4803      	ldr	r0, [pc, #12]	@ (8002310 <lcd_write_data_bus+0x68>)
 8002304:	e8bd 4010 	ldmia.w	sp!, {r4, lr}
 8002308:	2108      	movs	r1, #8
 800230a:	f7ff bf71 	b.w	80021f0 <gpio_write>
 800230e:	bf00      	nop
 8002310:	48000c00 			@ <UNDEFINED> instruction: 48000c00

08002314 <lcd_write_rw>:
 8002314:	b510      	push	{r4, lr}
 8002316:	4604      	mov	r4, r0
 8002318:	b940      	cbnz	r0, 800232c <lcd_write_rw+0x18>
 800231a:	f7ff ff79 	bl	8002210 <lcd_set_data_bus_output>
 800231e:	4622      	mov	r2, r4
 8002320:	4805      	ldr	r0, [pc, #20]	@ (8002338 <lcd_write_rw+0x24>)
 8002322:	e8bd 4010 	ldmia.w	sp!, {r4, lr}
 8002326:	210c      	movs	r1, #12
 8002328:	f7ff bf62 	b.w	80021f0 <gpio_write>
 800232c:	2801      	cmp	r0, #1
 800232e:	d1f6      	bne.n	800231e <lcd_write_rw+0xa>
 8002330:	f7ff ff94 	bl	800225c <lcd_set_data_bus_input>
 8002334:	e7f3      	b.n	800231e <lcd_write_rw+0xa>
 8002336:	bf00      	nop
 8002338:	48000400 			@ <UNDEFINED> instruction: 48000400

0800233c <lcd_write_rs>:
 800233c:	4602      	mov	r2, r0
 800233e:	210b      	movs	r1, #11
 8002340:	4801      	ldr	r0, [pc, #4]	@ (8002348 <lcd_write_rs+0xc>)
 8002342:	f7ff bf55 	b.w	80021f0 <gpio_write>
 8002346:	bf00      	nop
 8002348:	48000400 			@ <UNDEFINED> instruction: 48000400

0800234c <lcd_delay>:
 800234c:	2001      	movs	r0, #1
 800234e:	f7ff bedb 	b.w	8002108 <delay_ms>
	...

08002354 <lcd_write_e>:
 8002354:	b507      	push	{r0, r1, r2, lr}
 8002356:	f7ff fff9 	bl	800234c <lcd_delay>
 800235a:	480a      	ldr	r0, [pc, #40]	@ (8002384 <lcd_write_e+0x30>)
 800235c:	210d      	movs	r1, #13
 800235e:	f7ff ff3a 	bl	80021d6 <gpio_set>
 8002362:	2300      	movs	r3, #0
 8002364:	9301      	str	r3, [sp, #4]
 8002366:	9b01      	ldr	r3, [sp, #4]
 8002368:	2b63      	cmp	r3, #99	@ 0x63
 800236a:	d906      	bls.n	800237a <lcd_write_e+0x26>
 800236c:	4805      	ldr	r0, [pc, #20]	@ (8002384 <lcd_write_e+0x30>)
 800236e:	210d      	movs	r1, #13
 8002370:	b003      	add	sp, #12
 8002372:	f85d eb04 	ldr.w	lr, [sp], #4
 8002376:	f7ff bf34 	b.w	80021e2 <gpio_reset>
 800237a:	bf00      	nop
 800237c:	9b01      	ldr	r3, [sp, #4]
 800237e:	3301      	adds	r3, #1
 8002380:	e7f0      	b.n	8002364 <lcd_write_e+0x10>
 8002382:	bf00      	nop
 8002384:	48000400 			@ <UNDEFINED> instruction: 48000400

08002388 <lcd_write_instruction>:
 8002388:	b510      	push	{r4, lr}
 800238a:	4604      	mov	r4, r0
 800238c:	2000      	movs	r0, #0
 800238e:	f7ff ffc1 	bl	8002314 <lcd_write_rw>
 8002392:	2000      	movs	r0, #0
 8002394:	f7ff ffd2 	bl	800233c <lcd_write_rs>
 8002398:	4620      	mov	r0, r4
 800239a:	f7ff ff85 	bl	80022a8 <lcd_write_data_bus>
 800239e:	e8bd 4010 	ldmia.w	sp!, {r4, lr}
 80023a2:	f7ff bfd7 	b.w	8002354 <lcd_write_e>
	...

080023a8 <lcd_init>:
 80023a8:	b508      	push	{r3, lr}
 80023aa:	f7ff feb7 	bl	800211c <gpio_init>
 80023ae:	4827      	ldr	r0, [pc, #156]	@ (800244c <lcd_init+0xa4>)
 80023b0:	210f      	movs	r1, #15
 80023b2:	f7ff fed5 	bl	8002160 <gpio_set_output>
 80023b6:	4825      	ldr	r0, [pc, #148]	@ (800244c <lcd_init+0xa4>)
 80023b8:	210f      	movs	r1, #15
 80023ba:	f7ff ff0c 	bl	80021d6 <gpio_set>
 80023be:	4823      	ldr	r0, [pc, #140]	@ (800244c <lcd_init+0xa4>)
 80023c0:	210b      	movs	r1, #11
 80023c2:	f7ff fecd 	bl	8002160 <gpio_set_output>
 80023c6:	4821      	ldr	r0, [pc, #132]	@ (800244c <lcd_init+0xa4>)
 80023c8:	210c      	movs	r1, #12
 80023ca:	f7ff fec9 	bl	8002160 <gpio_set_output>
 80023ce:	481f      	ldr	r0, [pc, #124]	@ (800244c <lcd_init+0xa4>)
 80023d0:	210d      	movs	r1, #13
 80023d2:	f7ff fec5 	bl	8002160 <gpio_set_output>
 80023d6:	481d      	ldr	r0, [pc, #116]	@ (800244c <lcd_init+0xa4>)
 80023d8:	210e      	movs	r1, #14
 80023da:	f7ff fec1 	bl	8002160 <gpio_set_output>
 80023de:	210f      	movs	r1, #15
 80023e0:	481a      	ldr	r0, [pc, #104]	@ (800244c <lcd_init+0xa4>)
 80023e2:	f7ff febd 	bl	8002160 <gpio_set_output>
 80023e6:	2032      	movs	r0, #50	@ 0x32
 80023e8:	f7ff fe8e 	bl	8002108 <delay_ms>
 80023ec:	2030      	movs	r0, #48	@ 0x30
 80023ee:	f7ff ffcb 	bl	8002388 <lcd_write_instruction>
 80023f2:	200f      	movs	r0, #15
 80023f4:	f7ff fe88 	bl	8002108 <delay_ms>
 80023f8:	2030      	movs	r0, #48	@ 0x30
 80023fa:	f7ff ffc5 	bl	8002388 <lcd_write_instruction>
 80023fe:	2005      	movs	r0, #5
 8002400:	f7ff fe82 	bl	8002108 <delay_ms>
 8002404:	2030      	movs	r0, #48	@ 0x30
 8002406:	f7ff ffbf 	bl	8002388 <lcd_write_instruction>
 800240a:	2001      	movs	r0, #1
 800240c:	f7ff fe7c 	bl	8002108 <delay_ms>
 8002410:	2038      	movs	r0, #56	@ 0x38
 8002412:	f7ff ffb9 	bl	8002388 <lcd_write_instruction>
 8002416:	2008      	movs	r0, #8
 8002418:	f7ff fe76 	bl	8002108 <delay_ms>
 800241c:	2008      	movs	r0, #8
 800241e:	f7ff ffb3 	bl	8002388 <lcd_write_instruction>
 8002422:	2008      	movs	r0, #8
 8002424:	f7ff fe70 	bl	8002108 <delay_ms>
 8002428:	2001      	movs	r0, #1
 800242a:	f7ff ffad 	bl	8002388 <lcd_write_instruction>
 800242e:	2008      	movs	r0, #8
 8002430:	f7ff fe6a 	bl	8002108 <delay_ms>
 8002434:	2006      	movs	r0, #6
 8002436:	f7ff ffa7 	bl	8002388 <lcd_write_instruction>
 800243a:	2008      	movs	r0, #8
 800243c:	f7ff fe64 	bl	8002108 <delay_ms>
 8002440:	e8bd 4008 	ldmia.w	sp!, {r3, lr}
 8002444:	200c      	movs	r0, #12
 8002446:	f7ff bf9f 	b.w	8002388 <lcd_write_instruction>
 800244a:	bf00      	nop
 800244c:	48000400 			@ <UNDEFINED> instruction: 48000400

08002450 <lcd_write_data>:
 8002450:	b510      	push	{r4, lr}
 8002452:	4604      	mov	r4, r0
 8002454:	2000      	movs	r0, #0
 8002456:	f7ff ff5d 	bl	8002314 <lcd_write_rw>
 800245a:	2001      	movs	r0, #1
 800245c:	f7ff ff6e 	bl	800233c <lcd_write_rs>
 8002460:	4620      	mov	r0, r4
 8002462:	f7ff ff21 	bl	80022a8 <lcd_write_data_bus>
 8002466:	e8bd 4010 	ldmia.w	sp!, {r4, lr}
 800246a:	f7ff bf73 	b.w	8002354 <lcd_write_e>
	...

08002470 <systick_init>:
 8002470:	4b0d      	ldr	r3, [pc, #52]	@ (80024a8 <systick_init+0x38>)
 8002472:	4a0e      	ldr	r2, [pc, #56]	@ (80024ac <systick_init+0x3c>)
 8002474:	681b      	ldr	r3, [r3, #0]
 8002476:	fbb3 f3f2 	udiv	r3, r3, r2
 800247a:	f44f 727a 	mov.w	r2, #1000	@ 0x3e8
 800247e:	4353      	muls	r3, r2
 8002480:	3b01      	subs	r3, #1
 8002482:	f1b3 7f80 	cmp.w	r3, #16777216	@ 0x1000000
 8002486:	d20a      	bcs.n	800249e <systick_init+0x2e>
 8002488:	f04f 22e0 	mov.w	r2, #3758153728	@ 0xe000e000
 800248c:	21f0      	movs	r1, #240	@ 0xf0
 800248e:	6153      	str	r3, [r2, #20]
 8002490:	4b07      	ldr	r3, [pc, #28]	@ (80024b0 <systick_init+0x40>)
 8002492:	f883 1023 	strb.w	r1, [r3, #35]	@ 0x23
 8002496:	2300      	movs	r3, #0
 8002498:	6193      	str	r3, [r2, #24]
 800249a:	2307      	movs	r3, #7
 800249c:	6113      	str	r3, [r2, #16]
 800249e:	4b05      	ldr	r3, [pc, #20]	@ (80024b4 <systick_init+0x44>)
 80024a0:	2200      	movs	r2, #0
 80024a2:	601a      	str	r2, [r3, #0]
 80024a4:	4770      	bx	lr
 80024a6:	bf00      	nop
 80024a8:	20000568 			@ <UNDEFINED> instruction: 20000568
 80024ac:	000f4240 			@ <UNDEFINED> instruction: 000f4240
 80024b0:	e000ed00 			@ <UNDEFINED> instruction: e000ed00
 80024b4:	20000894 			@ <UNDEFINED> instruction: 20000894

080024b8 <SysTick_Handler>:
 80024b8:	4a02      	ldr	r2, [pc, #8]	@ (80024c4 <SysTick_Handler+0xc>)
 80024ba:	6813      	ldr	r3, [r2, #0]
 80024bc:	3301      	adds	r3, #1
 80024be:	6013      	str	r3, [r2, #0]
 80024c0:	4770      	bx	lr
 80024c2:	bf00      	nop
 80024c4:	20000894 			@ <UNDEFINED> instruction: 20000894

080024c8 <uart_init>:
 80024c8:	4a18      	ldr	r2, [pc, #96]	@ (800252c <uart_init+0x64>)
 80024ca:	b508      	push	{r3, lr}
 80024cc:	6d93      	ldr	r3, [r2, #88]	@ 0x58
 80024ce:	f443 2380 	orr.w	r3, r3, #262144	@ 0x40000
 80024d2:	6593      	str	r3, [r2, #88]	@ 0x58
 80024d4:	f3bf 8f4f 	dsb	sy
 80024d8:	4b15      	ldr	r3, [pc, #84]	@ (8002530 <uart_init+0x68>)
 80024da:	681a      	ldr	r2, [r3, #0]
 80024dc:	f022 5280 	bic.w	r2, r2, #268435456	@ 0x10000000
 80024e0:	601a      	str	r2, [r3, #0]
 80024e2:	681a      	ldr	r2, [r3, #0]
 80024e4:	f422 5280 	bic.w	r2, r2, #4096	@ 0x1000
 80024e8:	601a      	str	r2, [r3, #0]
 80024ea:	2200      	movs	r2, #0
 80024ec:	62da      	str	r2, [r3, #44]	@ 0x2c
 80024ee:	4a11      	ldr	r2, [pc, #68]	@ (8002534 <uart_init+0x6c>)
 80024f0:	fbb2 f0f0 	udiv	r0, r2, r0
 80024f4:	60d8      	str	r0, [r3, #12]
 80024f6:	685a      	ldr	r2, [r3, #4]
 80024f8:	f422 5240 	bic.w	r2, r2, #12288	@ 0x3000
 80024fc:	605a      	str	r2, [r3, #4]
 80024fe:	681a      	ldr	r2, [r3, #0]
 8002500:	f042 0201 	orr.w	r2, r2, #1
 8002504:	601a      	str	r2, [r3, #0]
 8002506:	681a      	ldr	r2, [r3, #0]
 8002508:	f042 0208 	orr.w	r2, r2, #8
 800250c:	601a      	str	r2, [r3, #0]
 800250e:	f7ff fe05 	bl	800211c <gpio_init>
 8002512:	4809      	ldr	r0, [pc, #36]	@ (8002538 <uart_init+0x70>)
 8002514:	2207      	movs	r2, #7
 8002516:	210a      	movs	r1, #10
 8002518:	f7ff fe35 	bl	8002186 <gpio_set_alt>
 800251c:	e8bd 4008 	ldmia.w	sp!, {r3, lr}
 8002520:	4806      	ldr	r0, [pc, #24]	@ (800253c <uart_init+0x74>)
 8002522:	2207      	movs	r2, #7
 8002524:	210f      	movs	r1, #15
 8002526:	f7ff be2e 	b.w	8002186 <gpio_set_alt>
 800252a:	bf00      	nop
 800252c:	40021000 			@ <UNDEFINED> instruction: 40021000
 8002530:	40004800 			@ <UNDEFINED> instruction: 40004800
 8002534:	08f0d180 			@ <UNDEFINED> instruction: 08f0d180
 8002538:	48000400 			@ <UNDEFINED> instruction: 48000400
 800253c:	48001000 			@ <UNDEFINED> instruction: 48001000

08002540 <uart_putc>:
 8002540:	4b02      	ldr	r3, [pc, #8]	@ (800254c <uart_putc+0xc>)
 8002542:	6298      	str	r0, [r3, #40]	@ 0x28
 8002544:	69da      	ldr	r2, [r3, #28]
 8002546:	0612      	lsls	r2, r2, #24
 8002548:	d5fc      	bpl.n	8002544 <uart_putc+0x4>
 800254a:	4770      	bx	lr
 800254c:	40004800 			@ <UNDEFINED> instruction: 40004800

08002550 <uart_puts>:
 8002550:	b538      	push	{r3, r4, r5, lr}
 8002552:	4605      	mov	r5, r0
 8002554:	2400      	movs	r4, #0
 8002556:	42a1      	cmp	r1, r4
 8002558:	d800      	bhi.n	800255c <uart_puts+0xc>
 800255a:	bd38      	pop	{r3, r4, r5, pc}
 800255c:	5d28      	ldrb	r0, [r5, r4]
 800255e:	f7ff ffef 	bl	8002540 <uart_putc>
 8002562:	3401      	adds	r4, #1
 8002564:	e7f7      	b.n	8002556 <uart_puts+0x6>
	...

08002568 <main>:
 8002568:	b508      	push	{r3, lr}
 800256a:	f7ff fd7b 	bl	8002064 <clocks_init>
 800256e:	f7ff ff7f 	bl	8002470 <systick_init>
 8002572:	f7ff fdd3 	bl	800211c <gpio_init>
 8002576:	2101      	movs	r1, #1
 8002578:	4826      	ldr	r0, [pc, #152]	@ (8002614 <main+0xac>)
 800257a:	f7ff fdf1 	bl	8002160 <gpio_set_output>
 800257e:	f44f 5016 	mov.w	r0, #9600	@ 0x2580
 8002582:	f7ff ffa1 	bl	80024c8 <uart_init>
 8002586:	f7ff ff0f 	bl	80023a8 <lcd_init>
 800258a:	4823      	ldr	r0, [pc, #140]	@ (8002618 <main+0xb0>)
 800258c:	2104      	movs	r1, #4
 800258e:	f7ff fde7 	bl	8002160 <gpio_set_output>
 8002592:	2104      	movs	r1, #4
 8002594:	4820      	ldr	r0, [pc, #128]	@ (8002618 <main+0xb0>)
 8002596:	f7ff fe1e 	bl	80021d6 <gpio_set>
 800259a:	f7ff ff05 	bl	80023a8 <lcd_init>
 800259e:	2048      	movs	r0, #72	@ 0x48
 80025a0:	f7ff ff56 	bl	8002450 <lcd_write_data>
 80025a4:	2065      	movs	r0, #101	@ 0x65
 80025a6:	f7ff ff53 	bl	8002450 <lcd_write_data>
 80025aa:	206c      	movs	r0, #108	@ 0x6c
 80025ac:	f7ff ff50 	bl	8002450 <lcd_write_data>
 80025b0:	206c      	movs	r0, #108	@ 0x6c
 80025b2:	f7ff ff4d 	bl	8002450 <lcd_write_data>
 80025b6:	206f      	movs	r0, #111	@ 0x6f
 80025b8:	f7ff ff4a 	bl	8002450 <lcd_write_data>
 80025bc:	202c      	movs	r0, #44	@ 0x2c
 80025be:	f7ff ff47 	bl	8002450 <lcd_write_data>
 80025c2:	2020      	movs	r0, #32
 80025c4:	f7ff ff44 	bl	8002450 <lcd_write_data>
 80025c8:	2057      	movs	r0, #87	@ 0x57
 80025ca:	f7ff ff41 	bl	8002450 <lcd_write_data>
 80025ce:	206f      	movs	r0, #111	@ 0x6f
 80025d0:	f7ff ff3e 	bl	8002450 <lcd_write_data>
 80025d4:	2072      	movs	r0, #114	@ 0x72
 80025d6:	f7ff ff3b 	bl	8002450 <lcd_write_data>
 80025da:	206c      	movs	r0, #108	@ 0x6c
 80025dc:	f7ff ff38 	bl	8002450 <lcd_write_data>
 80025e0:	2064      	movs	r0, #100	@ 0x64
 80025e2:	f7ff ff35 	bl	8002450 <lcd_write_data>
 80025e6:	2021      	movs	r0, #33	@ 0x21
 80025e8:	f7ff ff32 	bl	8002450 <lcd_write_data>
 80025ec:	480b      	ldr	r0, [pc, #44]	@ (800261c <main+0xb4>)
 80025ee:	f7fd fed3 	bl	8000398 <puts>
 80025f2:	2101      	movs	r1, #1
 80025f4:	4807      	ldr	r0, [pc, #28]	@ (8002614 <main+0xac>)
 80025f6:	f7ff fdee 	bl	80021d6 <gpio_set>
 80025fa:	f44f 707a 	mov.w	r0, #1000	@ 0x3e8
 80025fe:	f7ff fd83 	bl	8002108 <delay_ms>
 8002602:	4804      	ldr	r0, [pc, #16]	@ (8002614 <main+0xac>)
 8002604:	2101      	movs	r1, #1
 8002606:	f7ff fdec 	bl	80021e2 <gpio_reset>
 800260a:	f44f 707a 	mov.w	r0, #1000	@ 0x3e8
 800260e:	f7ff fd7b 	bl	8002108 <delay_ms>
 8002612:	e7eb      	b.n	80025ec <main+0x84>
 8002614:	48001000 			@ <UNDEFINED> instruction: 48001000
 8002618:	48000c00 			@ <UNDEFINED> instruction: 48000c00
 800261c:	0800265c 			@ <UNDEFINED> instruction: 0800265c

08002620 <register_fini>:
 8002620:	4b02      	ldr	r3, [pc, #8]	@ (800262c <register_fini+0xc>)
 8002622:	b113      	cbz	r3, 800262a <register_fini+0xa>
 8002624:	4802      	ldr	r0, [pc, #8]	@ (8002630 <register_fini+0x10>)
 8002626:	f7fe bcc9 	b.w	8000fbc <atexit>
 800262a:	4770      	bx	lr
 800262c:	00000000 			@ <UNDEFINED> instruction: 00000000
 8002630:	080003a9 			@ <UNDEFINED> instruction: 080003a9

08002634 <_init>:
 8002634:	b5f8      	push	{r3, r4, r5, r6, r7, lr}
 8002636:	bf00      	nop
 8002638:	bcf8      	pop	{r3, r4, r5, r6, r7}
 800263a:	bc08      	pop	{r3}
 800263c:	469e      	mov	lr, r3
 800263e:	4770      	bx	lr

08002640 <_fini>:
 8002640:	b5f8      	push	{r3, r4, r5, r6, r7, lr}
 8002642:	bf00      	nop
 8002644:	bcf8      	pop	{r3, r4, r5, r6, r7}
 8002646:	bc08      	pop	{r3}
 8002648:	469e      	mov	lr, r3
 800264a:	4770      	bx	lr

Disassembly of section .ARM:

08002670 <__exidx_start>:
 8002670:	7fffdd90 			@ <UNDEFINED> instruction: 7fffdd90
 8002674:	00000001 			@ <UNDEFINED> instruction: 00000001
